 kitl

 Timestamp is 510cb839 (Sat Feb 02 14:54:49 2013)

 Preferred load address is 10000000

 Start         Length     Name                   Class
 0001:00000000 000061d0H .rdata                  CODE
 0001:000061d0 00000021H .rdata$debug            CODE
 0001:000061f4 0000e2c8H .text                   CODE
 0001:000144bc 00000050H .xdata                  CODE
 0001:00014510 00000031H .edata                  CODE
 0002:00000000 0000089cH .data                   DATA
 0002:000008a0 00040d64H .bss                    DATA
 0003:00000000 000007b0H .pdata                  DATA

  Address         Publics by Value              Rva+Base       Lib:Object

 0000:00000000       ___safe_se_handler_table   00000000     <absolute>
 0000:00000000       ___safe_se_handler_count   00000000     <absolute>
 0001:0000001c       ??_C@_1BG@GBGKKBMB@?$AA6?$AA4?$AA1?$AA0?$AAU?$AAS?$AAB?$AAD?$AAN?$AAW?$AA?$AA@ 1000101c     kitl.obj
 0001:00000034       ??_C@_1BK@ECKHCCGF@?$AA6?$AA4?$AA1?$AA0?$AAU?$AAS?$AAB?$AAR?$AAn?$AAd?$AAi?$AAs?$AA?$AA@ 10001034     kitl.obj
 0001:00000050       ??_C@_1BM@DECJMDFN@?$AA6?$AA4?$AA1?$AA0?$AAU?$AAS?$AAB?$AAS?$AAe?$AAr?$AAi?$AAa?$AAl?$AA?$AA@ 10001050     kitl.obj
 0001:0000006c       ??_C@_1BK@LPGHAFNB@?$AA6?$AA4?$AA1?$AA0?$AAE?$AAt?$AAh?$AAe?$AAr?$AAn?$AAe?$AAt?$AA?$AA@ 1000106c     kitl.obj
 0001:00000118       ??_C@_0DL@DGJGPHFP@?$FLKITL?$FN?5Time?5went?5backwards?5?$CIor?5w@ 10001118     kitl.obj
 0001:00000158       ??_C@_0FD@MKPBAJBA@INFO?3?5Ethernet?5KITL?5Interrupt?5en@ 10001158     kitl.obj
 0001:000001b0       ??_C@_0EC@GGEHDGOI@OALKitlInitRegistry?3?5failed?5to?5s@ 100011b0     kitl.obj
 0001:000001f4       ??_C@_1DK@CEDCFFLC@?$AAE?$AAt?$AAh?$AAe?$AAr?$AAn?$AAe?$AAt?$AAK?$AAI?$AAT?$AAL?$AAI?$AAn?$AAt?$AAe?$AAr?$AAr?$AAu?$AAp?$AAt?$AAE?$AAn?$AAa?$AAb?$AAl?$AAe?$AAd?$AA?$AA@ 100011f4     kitl.obj
 0001:00000230       ??_C@_1DI@MNLDAFDC@?$AAD?$AAr?$AAi?$AAv?$AAe?$AAr?$AAs?$AA?2?$AAB?$AAu?$AAi?$AAl?$AAt?$AAI?$AAn?$AA?2?$AAP?$AAo?$AAw?$AAe?$AAr?$AAB?$AAu?$AAt?$AAt?$AAo?$AAn?$AA?$AA@ 10001230     kitl.obj
 0001:00000268       ??_C@_0DM@HBHJLGDO@INFO?3?5USB?5being?5used?5for?5KITL?5?9?5@ 10001268     kitl.obj
 0001:000002a8       ??_C@_0EF@JMLBIDNE@OALKitlInitRegistry?3?5failed?5to?5s@ 100012a8     kitl.obj
 0001:000002f0       ??_C@_1M@OAJFFPML@?$AAF?$AAl?$AAa?$AAg?$AAs?$AA?$AA@ 100012f0     kitl.obj
 0001:000002fc       ??_C@_1DI@KJAHNNJL@?$AAD?$AAr?$AAi?$AAv?$AAe?$AAr?$AAs?$AA?2?$AAB?$AAu?$AAi?$AAl?$AAt?$AAI?$AAn?$AA?2?$AAS?$AAC?$AA6?$AA4?$AA1?$AA0?$AAU?$AAS?$AAB?$AAF?$AAN?$AA?$AA@ 100012fc     kitl.obj
 0001:00000338       ??_C@_0EJ@HCJFOECG@BSPKitlEthPowerOn?3?5ERROR?3?5Failed@ 10001338     kitl.obj
 0001:00000384       ??_C@_0CO@BBLOEKAN@BSPKitlEthPowerOn?3?5No?5KITL?5args?0@ 10001384     kitl.obj
 0001:000003b4       ??_C@_0DA@NFPBKKFN@BSPKitlEthPowerOn?3?5Powering?5On?5E@ 100013b4     kitl.obj
 0001:000003e4       ??_C@_0DC@OBEDKGCD@?$AN?6BSPKitlEthPowerOff?3?5Ethernet?5K@ 100013e4     kitl.obj
 0001:00000418       ??_C@_1EC@PNPIGILA@?$AA?$FL?$AAK?$AAI?$AAT?$AAL?$AA?$FN?$AA?5?$AA?9?$AA?9?$AAO?$AAE?$AAM?$AAK?$AAi?$AAt?$AAl?$AAS?$AAt?$AAa?$AAr?$AAt?$AAu?$AAp?$AA?$CI?$AA?$CJ?$AA?5?$AA?$DN?$AA?5?$AA?$CF?$AAd?$AA?$AN?$AA?6@ 10001418     kitl.obj
 0001:0000045c       ??_C@_1DI@PMCAGIFO@?$AA?$FL?$AAK?$AAI?$AAT?$AAL?$AA?$FN?$AA?5?$AA?$CL?$AA?$CL?$AAO?$AAE?$AAM?$AAK?$AAi?$AAt?$AAl?$AAS?$AAt?$AAa?$AAr?$AAt?$AAu?$AAp?$AA?$CI?$AA?$CJ?$AA?$AN?$AA?6?$AA?$AA@ 1000145c     kitl.obj
 0001:00000494       ??_C@_0CA@NGKEKANM@Closing?5Handle?5of?5Timer?5Thread?6?$AA@ 10001494     kitlcore:ethdbg.obj
 0001:000004b4       ??_C@_0BN@FPKBKHBK@Error?5creating?5timer?5thread?6?$AA@ 100014b4     kitlcore:ethdbg.obj
 0001:000004d4       ??_C@_0CF@GGNNPHKD@Connecting?5to?5Desktop?5?4?4?5resendi@ 100014d4     kitlcore:ethdbg.obj
 0001:000004fc       ??_C@_0BI@OFAMBHJH@Connecting?5to?5Desktop?$AN?6?$AA@ 100014fc     kitlcore:ethdbg.obj
 0001:00000518       ??_C@_0EO@CEOOKDBM@?$CBKITL?5Interrupt?5thread?5got?5error@ 10001518     kitlcore:ethdbg.obj
 0001:00000568       ??_C@_0CB@PCGPHMPD@KITL?5InterruptInitialize?5failed?6@ 10001568     kitlcore:ethdbg.obj
 0001:0000058c       ??_C@_0BK@HDMNDFBA@KITL?5CreateEvent?5failed?$CB?6?$AA@ 1000158c     kitlcore:ethdbg.obj
 0001:000005a8       ??_C@_1BK@PPDMEPMD@?$AAE?$AAd?$AAb?$AAg?$AAI?$AAn?$AAt?$AAE?$AAv?$AAe?$AAn?$AAt?$AA?$AA@ 100015a8     kitlcore:ethdbg.obj
 0001:000005c4       ??_C@_0CK@GNMBECNI@?$CBDoRegisterClient?$CI?$CFs?$CJ?3?5Invalid?5p@ 100015c4     kitlcore:ethdbg.obj
 0001:000005f0       ??_C@_04HIBGFPH@NULL?$AA@  100015f0     kitlcore:ethdbg.obj
 0001:000005f8       ??_C@_0CP@LFECMIMJ@?$CBDoRegisterClient?$CI?$CFs?$CJ?3?5Invalid?5w@ 100015f8     kitlcore:ethdbg.obj
 0001:00000628       ??_C@_0DN@GDEGDLCL@?$CBKITLRegisterClient?$CI?$CFs?$CJ?3?5Client?5@ 10001628     kitlcore:ethdbg.obj
 0001:00000668       ??_C@_0DG@FHPIAJCD@?$CBKITLRegisterClient?$CI?$CFs?$CJ?3?5No?5avai@ 10001668     kitlcore:ethdbg.obj
 0001:000006a0       ??_C@_0DO@NHOEDOMO@?$CBDoRegisterClient?$CI?$CFs?$CJ?3?5Need?5to?5s@ 100016a0     kitlcore:ethdbg.obj
 0001:000006e0       ??_C@_0CB@GFDDAGEF@Error?5creating?5interrupt?5thread?6@ 100016e0     kitlcore:ethdbg.obj
 0001:00000704       ??_C@_0CE@FKCJJLLC@KITL?3?5Leaving?5polling?5mode?4?4?4?50x@ 10001704     kitlcore:ethdbg.obj
 0001:00000728       ??_C@_0DC@LLJMBDFH@?$CBKITLRegisterDfltClient?3?5Fail?5to@ 10001728     kitlcore:ethdbg.obj
 0001:0000075c       ??_C@_0DH@MFOCECCL@?$AN?6?$CBUnable?5to?5establish?5KITL?5conn@ 1000175c     kitlcore:ethdbg.obj
 0001:00000794       ??_C@_0DN@NDJFLFHF@?$AN?6?$CBKitl?5buffer?5specified?5by?5OAL?5@ 10001794     kitlcore:ethdbg.obj
 0001:000007d4       ??_C@_06MCCIJHBO@DBGMSG?$AA@ 100017d4     kitlcore:ethdbg.obj
 0001:000007dc       ??_C@_04JMJJJNGP@PPSH?$AA@ 100017dc     kitlcore:ethdbg.obj
 0001:000007e4       ??_C@_04MOKOCOLM@KDBG?$AA@ 100017e4     kitlcore:ethdbg.obj
 0001:000007ec       ??_C@_0CE@HDEHCBNJ@KITL?5Error?5allocating?5timer?5memo@ 100017ec     kitlcore:timer.obj
 0001:00000810       ??_C@_0DM@HHCOAHOB@?$CBKitlSendFrame?3?5transport?5failed@ 10001810     kitlcore:edbgprot.obj
 0001:0000084c       ??_C@_0CF@ELFKFCIB@?$CBSendConfig?3?5Error?5in?5KitlSendFr@ 1000184c     kitlcore:edbgprot.obj
 0001:00000874       ??_C@_0BO@OHFCENNA@?$CBSendConfig?3?5Stack?5overflow?$AN?6?$AA@ 10001874     kitlcore:edbgprot.obj
 0001:00000894       ??_C@_0CM@CLKKFLBC@?$CBRetransmitFrame?3?5Error?5in?5KitlS@ 10001894     kitlcore:edbgprot.obj
 0001:000008c0       ??_C@_0CH@PDOCBOKH@?$CBKITL?3?5Error?5in?5KitlSendFrame?5fo@ 100018c0     kitlcore:edbgprot.obj
 0001:000008e8       ??_C@_0BP@EJOKEGGJ@?$CBSendAckNack?3?5Stack?5overflow?$AN?6?$AA@ 100018e8     kitlcore:edbgprot.obj
 0001:00000908       ??_C@_0BJ@HLKLCDLN@KITL?3?5Got?5RESET?5command?6?$AA@ 10001908     kitlcore:edbgprot.obj
 0001:00000924       ??_C@_0DH@FAHMLBID@KITL?3?5IOCTL_HAL_REBOOT?5not?5suppo@ 10001924     kitlcore:edbgprot.obj
 0001:0000095c       ??_C@_0CM@CCHLHCID@?$CBHost?5config?5message?5size?5mismat@ 1000195c     kitlcore:edbgprot.obj
 0001:00000988       ??_C@_0CB@MCDILJMK@?$CBKITLPollData?3?5STACK?5OVERFLOW?$CB?$AN?6@ 10001988     kitlcore:edbgprot.obj
 0001:000009ac       ??_C@_0DA@KOJGDENJ@?$CBExchangeConfig?3?5WaitForMultiple@ 100019ac     kitlcore:edbgprot.obj
 0001:000009dc       ??_C@_0CD@CLDOKAPO@?$CBKITLSend?3?5Error?5in?5KitlSendFram@ 100019dc     kitlcore:edbgprot.obj
 0001:00000a00       ??_C@_0FD@BAMAHPPH@0x?$CFx?5?$CI0x?$CFx?$CJ?3?5KITLSend?$CI?$CFu?$CJ?3?5Timed@ 10001a00     kitlcore:edbgprot.obj
 0001:00000a54       ??_C@_02DKCKIIND@?$CFs?$AA@ 10001a54     kitlcore:edbgprot.obj
 0001:00000a58       ??_C@_0DD@OOGFOEID@?$CBKITLSend?$CIDBGMSG?$CJ?3?5Reentrant?5cal@ 10001a58     kitlcore:edbgprot.obj
 0001:00000a8c       ??_C@_03OFAPEBGM@?$CFs?6?$AA@ 10001a8c     kitlcore:edbgprot.obj
 0001:00000a90       ??_C@_0DK@DPCAMIHE@?$CBKITLSend?3?5Data?5to?5be?5send?5overl@ 10001a90     kitlcore:edbgprot.obj
 0001:00000acc       ??_C@_0CJ@KPACHCHO@?$AN?6?$CBKITLRecv?3?5Invalid?5client?5ID?5?$CF@ 10001acc     kitlcore:edbgprot.obj
 0001:00000af8       ??_C@_0DJ@KKFBBHCF@?$CBKITLRecv?3?5Receive?5buffer?5overla@ 10001af8     kitlcore:edbgprot.obj
 0001:00000c58       ??_C@_0BI@KCIPJAAG@?9OALKitlInit?$CIrc?5?$DN?5?$CFd?$CJ?$AN?6?$AA@ 10001c58     oal_kitl:kitl.obj
 0001:00000c70       ??_C@_0CG@NCCHEHBN@ERROR?3?5OALKitlInit?3?5KitlInit?5fai@ 10001c70     oal_kitl:kitl.obj
 0001:00000c98       ??_C@_0FG@GMOHKIKA@ERROR?3?5OALKitlInit?3?5No?5supported@ 10001c98     oal_kitl:kitl.obj
 0001:00000cf0       ??_C@_0CD@KFHIJAFP@WARN?3?5OALKitlInit?3?5KITL?5Disabled@ 10001cf0     oal_kitl:kitl.obj
 0001:00000d14       ??_C@_0CB@ICNOHDED@pDevice?9?$DOpDriver?4?4?4?4?4?4?4?4?4?50x?$CFx?$AN?6@ 10001d14     oal_kitl:kitl.obj
 0001:00000d38       ??_C@_0BP@LAJLJKFE@pDevice?9?$DOtype?4?4?4?4?4?4?4?4?4?4?4?4?5?$CFd?$AN?6?$AA@ 10001d38     oal_kitl:kitl.obj
 0001:00000d58       ??_C@_0BP@OJPECLKF@pDevice?9?$DOresource?4?4?4?4?4?4?4?4?5?$CFd?$AN?6?$AA@ 10001d58     oal_kitl:kitl.obj
 0001:00000d78       ??_C@_0CB@JAOILBKH@pDevice?9?$DOid?4?4?4?4?4?4?4?4?4?4?4?4?4?4?50x?$CFx?$AN?6@ 10001d78     oal_kitl:kitl.obj
 0001:00000d9c       ??_C@_0BP@ELIKEIPK@pDevice?9?$DOifcType?4?4?4?4?4?4?4?4?4?5?$CFd?$AN?6?$AA@ 10001d9c     oal_kitl:kitl.obj
 0001:00000dbc       ??_C@_0CA@MADPCADD@pDevice?9?$DOName?4?4?4?4?4?4?4?4?4?4?4?4?5?$CFhs?$AN?6?$AA@ 10001dbc     oal_kitl:kitl.obj
 0001:00000ddc       ??_C@_0BP@GCIAPLEP@pArgs?9?$DOip4address?4?4?4?4?4?4?4?4?5?$CFs?$AN?6?$AA@ 10001ddc     oal_kitl:kitl.obj
 0001:00000dfc       ??_C@_0BP@EDAFLEND@pArgs?9?$DOdevLoc?4Pin?4?4?4?4?4?4?4?4?5?$CFd?$AN?6?$AA@ 10001dfc     oal_kitl:kitl.obj
 0001:00000e1c       ??_C@_0CB@ELNIEECP@pArgs?9?$DOdevLoc?4PhysicalLoc?50x?$CFx?$AN?6@ 10001e1c     oal_kitl:kitl.obj
 0001:00000e40       ??_C@_0CB@OOHPGPEK@pArgs?9?$DOdevLoc?4LogicalLoc?4?50x?$CFx?$AN?6@ 10001e40     oal_kitl:kitl.obj
 0001:00000e64       ??_C@_0BP@CLIEPDAL@pArgs?9?$DOdevLoc?4IfcType?4?4?4?4?5?$CFd?$AN?6?$AA@ 10001e64     oal_kitl:kitl.obj
 0001:00000e84       ??_C@_0CB@LJCIEGGC@pArgs?9?$DOflags?4?4?4?4?4?4?4?4?4?4?4?4?4?50x?$CFx?$AN?6@ 10001e84     oal_kitl:kitl.obj
 0001:00000ea8       ??_C@_0BP@HJJCJHBD@DeviceId?4?4?4?4?4?4?4?4?4?4?4?4?4?4?4?4?4?5?$CFs?$AN?6?$AA@ 10001ea8     oal_kitl:kitl.obj
 0001:00000ec8       ??_C@_0DF@BBIFGKFF@?$CLOALKitlInit?$CI?8?$CFhs?8?0?50x?$CF08x?5?9?5?$CFd?1@ 10001ec8     oal_kitl:kitl.obj
 0001:00000f00       ??_C@_0BD@GBONLPAN@?9OALKitlPowerOff?$AN?6?$AA@ 10001f00     oal_kitl:kitl.obj
 0001:00000f14       ??_C@_0BD@PMDBLEBO@?$CLOALKitlPowerOff?$AN?6?$AA@ 10001f14     oal_kitl:kitl.obj
 0001:00000f28       ??_C@_0BC@KIOCKNCJ@?9OALKitlPowerOn?$AN?6?$AA@ 10001f28     oal_kitl:kitl.obj
 0001:00000f3c       ??_C@_0BC@KGJOBBKM@?$CLOALKitlPowerOn?$AN?6?$AA@ 10001f3c     oal_kitl:kitl.obj
 0001:00000f50       ??_C@_0BI@GBPEIAJI@?9OEMKitlInit?$CIrc?5?$DN?5?$CFd?$CJ?$AN?6?$AA@ 10001f50     oal_kitl:kitl.obj
 0001:00000f68       ??_C@_0BH@DJPAMHLI@?$CLOEMKitlInit?$CI0x?$CF08x?$CJ?$AN?6?$AA@ 10001f68     oal_kitl:kitl.obj
 0001:00001010       ??_C@_0CB@GFLGAKPJ@KITL?3?5Start?5DHCP?5RENEW?5process?$AN?6@ 10002010     oal_kitl:kitleth.obj
 0001:00001034       ??_C@_0CJ@OFEHEAMD@KITL?3?5Connected?5host?5?5IP?3?5?$CFs?5?5Po@ 10002034     oal_kitl:kitleth.obj
 0001:00001060       ??_C@_0CO@LIMJACDF@?9KitlEthDecode?$CIpData?5?$DN?50x?$CF08x?0?5l@ 10002060     oal_kitl:kitleth.obj
 0001:00001090       ??_C@_0CF@DCHGBGAP@?$CLKitlEthDecode?$CI0x?$CF08x?0?50x?$CF08x?9?$DO?$CF@ 10002090     oal_kitl:kitleth.obj
 0001:000010b8       ??_C@_0BJ@BAFHPAIJ@?9KitlEthEncode?$CIrc?5?$DN?51?$CJ?$AN?6?$AA@ 100020b8     oal_kitl:kitleth.obj
 0001:000010d4       ??_C@_0BL@NHDADPAH@?$CLKitlEthEncode?$CI?$CF08x?0?5?$CFd?$CJ?$AN?6?$AA@ 100020d4     oal_kitl:kitleth.obj
 0001:000010f0       ??_C@_0BN@OHPDCAJH@?9KitlEthGetDevCfg?$CIrc?5?$DN?5?$CFd?$CJ?$AN?6?$AA@ 100020f0     oal_kitl:kitleth.obj
 0001:00001110       ??_C@_0CI@LLEHHLED@?$CLKitlEthGetDevCfg?$CI0x?$CF08x?0?50x?$CF08x@ 10002110     oal_kitl:kitleth.obj
 0001:00001138       ??_C@_0BI@DJIGCCGG@?9KitlEthSend?$CIrc?5?$DN?5?$CFd?$CJ?$AN?6?$AA@ 10002138     oal_kitl:kitleth.obj
 0001:00001150       ??_C@_0CA@ELPHLPBP@?$CBDriver?5Send?5failure?0?5retry?5?$CFu?6?$AA@ 10002150     oal_kitl:kitleth.obj
 0001:00001170       ??_C@_0BL@MJDALEMH@?$CLKitlEthSend?$CI0x?$CF08x?0?5?$CFd?$CJ?$AN?6?$AA@ 10002170     oal_kitl:kitleth.obj
 0001:0000118c       ??_C@_0BI@PEEPNADN@?9KitlEthRecv?$CIrc?5?$DN?5?$CFd?$CJ?$AN?6?$AA@ 1000218c     oal_kitl:kitleth.obj
 0001:000011a4       ??_C@_0CD@HNBDALDE@?$CLKitlEthRecv?$CI0x?$CF08x?0?50x?$CF08x?9?$DO?$CFd?$CJ@ 100021a4     oal_kitl:kitleth.obj
 0001:000011c8       ??_C@_0BE@NDAHGBJL@?9KitlEthEnableInt?$AN?6?$AA@ 100021c8     oal_kitl:kitleth.obj
 0001:000011dc       ??_C@_0BI@OLDCGLHD@?$CLKitlEthEnableInt?$CI?$CFd?$CJ?$AN?6?$AA@ 100021dc     oal_kitl:kitleth.obj
 0001:000011f4       ??_C@_0BM@FALEIOIG@?9OALIoCtlVBridge?$CIrc?5?$DN?5?$CFd?$CJ?$AN?6?$AA@ 100021f4     oal_kitl:kitleth.obj
 0001:00001210       ??_C@_0BP@BIAFCCDM@?$CLOALIoCtlVBridge?$CI0x?$CF08x?0?4?4?4?$CJ?$AN?6?$AA@ 10002210     oal_kitl:kitleth.obj
 0001:00001230       ??_C@_0CF@CNPGAGEH@KITL?3?5DHCP?5get?1renew?5device?5IP?3?5@ 10002230     oal_kitl:kitleth.obj
 0001:00001258       ??_C@_0BL@OCIIDPCB@?9OALKitlEthInit?$CIrc?5?$DN?5?$CFd?$CJ?$AN?6?$AA@ 10002258     oal_kitl:kitleth.obj
 0001:00001274       ??_C@_0CG@IJDAEBCE@WARN?3?5KITL?5will?5run?5in?5polling?5m@ 10002274     oal_kitl:kitleth.obj
 0001:0000129c       ??_C@_0CN@MENCFIED@WARN?3?5KITL?5can?8t?5obtain?5SYSINTR?5@ 1000229c     oal_kitl:kitleth.obj
 0001:000012cc       ??_C@_0BL@EIDMIDBA@KITL?3?5using?5sysintr?50x?$CFx?$AN?6?$AA@ 100022cc     oal_kitl:kitleth.obj
 0001:000012e8       ??_C@_0CO@BPFMIJNH@WARN?3?5KITL?5can?8t?5obtain?5IRQ?5for?5@ 100022e8     oal_kitl:kitleth.obj
 0001:00001318       ??_C@_0BP@ILGKAKAA@KITL?3?5?$CK?$CK?$CK?5Device?5Name?5?$CFs?5?$CK?$CK?$CK?$AN?6?$AA@ 10002318     oal_kitl:kitleth.obj
 0001:00001338       ??_C@_0CF@GMMNDEHJ@ERROR?3?5KITL?5call?5to?5pfnInit?5fail@ 10002338     oal_kitl:kitleth.obj
 0001:00001360       ??_C@_0CO@PDOCGCJP@ERROR?3?5KITL?5call?5to?5pfnInitDmaBu@ 10002360     oal_kitl:kitleth.obj
 0001:00001390       ??_C@_0CE@LGCGCDLA@ERROR?3?5KITL?5device?5driver?5is?5NUL@ 10002390     oal_kitl:kitleth.obj
 0001:000013b4       ??_C@_0CO@HIMCOMKP@?$CLOALKitlEthInit?$CI?8?$CFS?8?0?5?8?$CFs?8?0?50x?$CF0@ 100023b4     oal_kitl:kitleth.obj
 0001:00001478       ??_C@_0EB@BGCKLDE@?9OALKitlFindDevice?$CIpDevice?5?$DN?50x?$CF@ 10002478     oal_kitl:device.obj
 0001:000014bc       ??_C@_11LOCGONAA@?$AA?$AA@ 100024bc     oal_kitl:device.obj
 0001:000014c0       ??_C@_0CJ@GPDFFIKB@?$CLOALKitlFindDevice?$CI?$CFd?1?$CFd?1?$CF08x?0?50@ 100024c0     oal_kitl:device.obj
 0001:00001580       ??_C@_1BI@FCMLLAGN@?$AA?$CF?$AAd?$AA?4?$AA?$CF?$AAd?$AA?4?$AA?$CF?$AAd?$AA?4?$AA?$CF?$AAd?$AA?$AA@ 10002580     oal_kitl:format.obj
 0001:0000162c       ??_C@_0BG@PDHAIEPB@?9SerialSend?$CIrc?5?$DN?51?$CJ?$AN?6?$AA@ 1000262c     oal_kitl:kitlserial.obj
 0001:00001644       ??_C@_0BK@FJBKAKDG@?$CLSerialSend?$CI0x?$CF08x?0?5?$CFd?$CJ?$AN?6?$AA@ 10002644     oal_kitl:kitlserial.obj
 0001:00001660       ??_C@_0BN@FOGKPFOM@?9SerialRecv?$CI?$CKpLength?5?$DN?5?$CFd?$CJ?$AN?6?$AA@ 10002660     oal_kitl:kitlserial.obj
 0001:00001680       ??_C@_0DN@FPKOAPOO@ERROR?3?5SerialRecv?3?5Received?5pack@ 10002680     oal_kitl:kitlserial.obj
 0001:000016c0       ??_C@_0DI@FBKFFAPI@WARN?3?5SerialRecv?3?5Packet?5checksu@ 100026c0     oal_kitl:kitlserial.obj
 0001:000016f8       ??_C@_0FC@OLAMHMJA@WARN?3?5SerialRecv?3?5payload?5size?5e@ 100026f8     oal_kitl:kitlserial.obj
 0001:00001750       ??_C@_0FE@EPOLMELO@WARN?3?5SerialRecv?3?5Packet?5type?5wr@ 10002750     oal_kitl:kitlserial.obj
 0001:000017a8       ??_C@_0FH@COFDJCJM@WARN?3?5SerialRecv?3?5Header?5checksu@ 100027a8     oal_kitl:kitlserial.obj
 0001:00001800       ??_C@_0BK@PNMBDCIB@?$CLSerialRecv?$CI0x?$CF08x?0?5?$CFd?$CJ?$AN?6?$AA@ 10002800     oal_kitl:kitlserial.obj
 0001:0000181c       ??_C@_0BO@KPIGKMGK@?9OALKitlSerialInit?$CIrc?5?$DN?5?$CFd?$CJ?$AN?6?$AA@ 1000281c     oal_kitl:kitlserial.obj
 0001:0000183c       ??_C@_0DB@NNJFABKG@?$CLOALKitlSerialInit?$CI?8?$CFS?8?0?5?8?$CFs?8?0?50@ 1000283c     oal_kitl:kitlserial.obj
 0001:00001900       ??_C@_0CG@IHIMJOIA@?9OALKitlCreateName?$CIpBuffer?5?$DN?5?8?$CFh@ 10002900     oal_kitl:name.obj
 0001:00001928       ??_C@_0CM@BCMDHFLI@?$CLOALKitlCreateName?$CI?8?$CFhs?8?0?50x?$CF04x@ 10002928     oal_kitl:name.obj
 0001:000019e8       ??_C@_1DA@HPAIFLP@?$AA?9?$AAC?$AAS?$AA8?$AA9?$AA0?$AA0?$AAA?$AAI?$AAn?$AAi?$AAt?$AA?$CI?$AAr?$AAc?$AA?5?$AA?$DN?$AA?5?$AA?$CF?$AAd?$AA?$CJ?$AA?$AN?$AA?6?$AA?$AA@ 100029e8     oal_ethdrv_dm9000a:cs8900a.obj
 0001:00001a18       ??_C@_1FG@OMDFJAIK@?$AAE?$AAR?$AAR?$AAO?$AAR?$AA?3?$AA?5?$AAC?$AAS?$AA8?$AA9?$AA0?$AA0?$AAA?$AAI?$AAn?$AAi?$AAt?$AA?3?$AA?5?$AAF?$AAa?$AAi?$AAl?$AAe?$AAd?$AA?5?$AAt?$AAo?$AA?5?$AAr?$AAe@ 10002a18     oal_ethdrv_dm9000a:cs8900a.obj
 0001:00001a70       ??_C@_1EE@JGGAHGPC@?$AAI?$AAN?$AAF?$AAO?$AA?3?$AA?5?$AAC?$AAS?$AA8?$AA9?$AA0?$AA0?$AAA?$AAI?$AAn?$AAi?$AAt?$AA?5?$AAc?$AAh?$AAi?$AAp?$AA?5?$AAd?$AAe?$AAt?$AAe?$AAc?$AAt?$AAe?$AAd?$AA?$AN@ 10002a70     oal_ethdrv_dm9000a:cs8900a.obj
 0001:00001ab8       ??_C@_1FC@MDLJIMFC@?$AAE?$AAR?$AAR?$AAO?$AAR?$AA?3?$AA?5?$AAC?$AAS?$AA8?$AA9?$AA0?$AA0?$AAA?$AAI?$AAn?$AAi?$AAt?$AA?3?$AA?5?$AAF?$AAa?$AAi?$AAl?$AAe?$AAd?$AA?5?$AAd?$AAe?$AAt?$AAe?$AAc@ 10002ab8     oal_ethdrv_dm9000a:cs8900a.obj
 0001:00001b10       ??_C@_1HM@NGLAKPGN@?$AA?$CL?$AAC?$AAS?$AA8?$AA9?$AA0?$AA0?$AAA?$AAI?$AAn?$AAi?$AAt?$AA?$CI?$AA0?$AAx?$AA?$CF?$AA0?$AA8?$AAx?$AA?0?$AA?5?$AA0?$AAx?$AA?$CF?$AA0?$AA8?$AAx?$AA?0?$AA?5?$AA?$CF?$AA0?$AA2@ 10002b10     oal_ethdrv_dm9000a:cs8900a.obj
 0001:00001b8c       ??_C@_1DK@NOGHLOAJ@?$AA?9?$AAC?$AAS?$AA8?$AA9?$AA0?$AA0?$AAA?$AAS?$AAe?$AAn?$AAd?$AAF?$AAr?$AAa?$AAm?$AAe?$AA?$CI?$AAr?$AAc?$AA?5?$AA?$DN?$AA?5?$AA?$CF?$AAd?$AA?$CJ?$AA?$AN?$AA?6?$AA?$AA@ 10002b8c     oal_ethdrv_dm9000a:cs8900a.obj
 0001:00001bc8       ??_C@_1EA@EJDJMGMM@?$AA?$CL?$AAC?$AAS?$AA8?$AA9?$AA0?$AA0?$AAA?$AAS?$AAe?$AAn?$AAd?$AAF?$AAr?$AAa?$AAm?$AAe?$AA?$CI?$AA0?$AAx?$AA?$CF?$AA0?$AA8?$AAx?$AA?0?$AA?5?$AA?$CF?$AAd?$AA?$CJ?$AA?$AN?$AA?6?$AA?$AA@ 10002bc8     oal_ethdrv_dm9000a:cs8900a.obj
 0001:00001c08       ??_C@_1EA@NNPLDGPH@?$AA?9?$AAC?$AAS?$AA8?$AA9?$AA0?$AA0?$AAA?$AAG?$AAe?$AAt?$AAF?$AAr?$AAa?$AAm?$AAe?$AA?$CI?$AAl?$AAe?$AAn?$AAg?$AAt?$AAh?$AA?5?$AA?$DN?$AA?5?$AA?$CF?$AAd?$AA?$CJ?$AA?$AN?$AA?6?$AA?$AA@ 10002c08     oal_ethdrv_dm9000a:cs8900a.obj
 0001:00001c48       ??_C@_1DO@KOGIIKI@?$AA?$CL?$AAC?$AAS?$AA8?$AA9?$AA0?$AA0?$AAA?$AAG?$AAe?$AAt?$AAF?$AAr?$AAa?$AAm?$AAe?$AA?$CI?$AA0?$AAx?$AA?$CF?$AA0?$AA8?$AAx?$AA?0?$AA?5?$AA?$CF?$AAd?$AA?$CJ?$AA?$AN?$AA?6?$AA?$AA@ 10002c48     oal_ethdrv_dm9000a:cs8900a.obj
 0001:00001c88       ??_C@_1CK@MHFPLOF@?$AA?9?$AAC?$AAS?$AA8?$AA9?$AA0?$AA0?$AAA?$AAE?$AAn?$AAa?$AAb?$AAl?$AAe?$AAI?$AAn?$AAt?$AAs?$AA?$AN?$AA?6?$AA?$AA@ 10002c88     oal_ethdrv_dm9000a:cs8900a.obj
 0001:00001cb4       ??_C@_1CK@HMACONAD@?$AA?$CL?$AAC?$AAS?$AA8?$AA9?$AA0?$AA0?$AAA?$AAE?$AAn?$AAa?$AAb?$AAl?$AAe?$AAI?$AAn?$AAt?$AAs?$AA?$AN?$AA?6?$AA?$AA@ 10002cb4     oal_ethdrv_dm9000a:cs8900a.obj
 0001:00001ce0       ??_C@_1CM@HJOGNMLM@?$AA?9?$AAC?$AAS?$AA8?$AA9?$AA0?$AA0?$AAA?$AAD?$AAi?$AAs?$AAa?$AAb?$AAl?$AAe?$AAI?$AAn?$AAt?$AAs?$AA?$AN?$AA?6?$AA?$AA@ 10002ce0     oal_ethdrv_dm9000a:cs8900a.obj
 0001:00001d0c       ??_C@_1CM@IFBGENPA@?$AA?$CL?$AAC?$AAS?$AA8?$AA9?$AA0?$AA0?$AAA?$AAD?$AAi?$AAs?$AAa?$AAb?$AAl?$AAe?$AAI?$AAn?$AAt?$AAs?$AA?$AN?$AA?6?$AA?$AA@ 10002d0c     oal_ethdrv_dm9000a:cs8900a.obj
 0001:00001d38       ??_C@_1DM@JKDMICEC@?$AA?9?$AAC?$AAS?$AA8?$AA9?$AA0?$AA0?$AAA?$AAC?$AAu?$AAr?$AAr?$AAe?$AAn?$AAt?$AAP?$AAa?$AAc?$AAk?$AAe?$AAt?$AAF?$AAi?$AAl?$AAt?$AAe?$AAr?$AA?$AN?$AA?6?$AA?$AA@ 10002d38     oal_ethdrv_dm9000a:cs8900a.obj
 0001:00001d78       ??_C@_1EM@MHLCOBBO@?$AA?$CL?$AAC?$AAS?$AA8?$AA9?$AA0?$AA0?$AAA?$AAC?$AAu?$AAr?$AAr?$AAe?$AAn?$AAt?$AAP?$AAa?$AAc?$AAk?$AAe?$AAt?$AAF?$AAi?$AAl?$AAt?$AAe?$AAr?$AA?$CI?$AA0?$AAx?$AA?$CF?$AA0@ 10002d78     oal_ethdrv_dm9000a:cs8900a.obj
 0001:00001dc8       ??_C@_1EA@KHPNHEKF@?$AA?9?$AAC?$AAS?$AA8?$AA9?$AA0?$AA0?$AAA?$AAM?$AAu?$AAl?$AAt?$AAi?$AAc?$AAa?$AAs?$AAt?$AAL?$AAi?$AAs?$AAt?$AA?$CI?$AAr?$AAc?$AA?5?$AA?$DN?$AA?5?$AA1?$AA?$CJ?$AA?$AN?$AA?6?$AA?$AA@ 10002dc8     oal_ethdrv_dm9000a:cs8900a.obj
 0001:00001e08       ??_C@_1EI@MLDMDCPO@?$AA?$CL?$AAR?$AAT?$AAL?$AA8?$AA1?$AA3?$AA9?$AAM?$AAu?$AAl?$AAt?$AAi?$AAc?$AAa?$AAs?$AAt?$AAL?$AAi?$AAs?$AAt?$AA?$CI?$AA0?$AAx?$AA?$CF?$AA0?$AA8?$AAx?$AA?0?$AA?5?$AA?$CF?$AAd@ 10002e08     oal_ethdrv_dm9000a:cs8900a.obj
 0001:00001ee0       ??_C@_1EK@OPPDNHBL@?$AAE?$AAR?$AAR?$AAO?$AAR?$AA?3?$AA?5?$AAP?$AAr?$AAo?$AAb?$AAe?$AA?3?$AA?5?$AAC?$AAa?$AAn?$AA?5?$AAn?$AAo?$AAt?$AA?5?$AAf?$AAi?$AAn?$AAd?$AA?5?$AAD?$AAM?$AA9?$AA0?$AA0@ 10002ee0     oal_ethdrv_dm9000a:dm9000dbg.obj
 0001:00001f30       ??_C@_1EG@NNHFPGGK@?$AAI?$AAN?$AAF?$AAO?$AA?3?$AA?5?$AAP?$AAr?$AAo?$AAb?$AAe?$AA?3?$AA?5?$AAD?$AAM?$AA9?$AA0?$AA0?$AA0?$AA?5?$AAi?$AAs?$AA?5?$AAd?$AAe?$AAt?$AAe?$AAc?$AAt?$AAe?$AAd?$AA?4@ 10002f30     oal_ethdrv_dm9000a:dm9000dbg.obj
 0001:00001f78       ??_C@_1CI@FEIFDDOP@?$AAD?$AAM?$AA9?$AA0?$AA0?$AA0?$AA?5?$AAI?$AAD?$AA?5?$AAi?$AAs?$AA?5?$AA0?$AAx?$AA?$CF?$AAx?$AA?$AN?$AA?6?$AA?$AA@ 10002f78     oal_ethdrv_dm9000a:dm9000dbg.obj
 0001:00001fa0       ??_C@_1FC@FLIHLGKI@?$AAD?$AAM?$AA9?$AA0?$AA0?$AA0?$AA?3?$AA?5?$AAM?$AAA?$AAC?$AA?5?$AAA?$AAd?$AAd?$AAr?$AAe?$AAs?$AAs?$AA?3?$AA?5?$AA?$CF?$AAx?$AA?3?$AA?$CF?$AAx?$AA?3?$AA?$CF?$AAx?$AA?3?$AA?$CF?$AAx@ 10002fa0     oal_ethdrv_dm9000a:dm9000dbg.obj
 0001:00001ff4       ??_C@_1DE@DAHNLBLJ@?$AA?9?$AAO?$AAA?$AAL?$AAP?$AAA?$AAt?$AAo?$AAV?$AAA?$AA?$CI?$AAv?$AAa?$AA?5?$AA?$DN?$AA?5?$AA0?$AAx?$AA?$CF?$AA0?$AA8?$AAx?$AA?$CJ?$AA?$AN?$AA?6?$AA?$AA@ 10002ff4     oal_memory_arm:memory.obj
 0001:00002028       ??_C@_1CO@JEIJEAKF@?$AA?$CL?$AAO?$AAA?$AAL?$AAP?$AAA?$AAt?$AAo?$AAV?$AAA?$AA?$CI?$AA0?$AAx?$AA?$CF?$AAx?$AA?0?$AA?5?$AA?$CF?$AAd?$AA?$CJ?$AA?$AN?$AA?6?$AA?$AA@ 10003028     oal_memory_arm:memory.obj
 0001:000020e8       ??_C@_1EA@DJGHLELP@?$AA?9?$AAO?$AAA?$AAL?$AAA?$AAr?$AAg?$AAs?$AAQ?$AAu?$AAe?$AAr?$AAy?$AA?$CI?$AAp?$AAD?$AAa?$AAt?$AAa?$AA?5?$AA?$DN?$AA?5?$AA0?$AAx?$AA?$CF?$AA0?$AA8?$AAx?$AA?$CJ?$AA?$AN?$AA?6?$AA?$AA@ 100030e8     s3c6410_args:args.obj
 0001:00002128       ??_C@_1EM@ODHMAKKI@?$AA?$FL?$AAO?$AAA?$AAL?$AA?3?$AAE?$AAR?$AAR?$AA?$FN?$AA?5?$AAA?$AAr?$AAg?$AAu?$AAm?$AAe?$AAn?$AAt?$AAs?$AA?5?$AAa?$AAr?$AAe?$AAa?$AA?5?$AAi?$AAs?$AA?5?$AAi?$AAn?$AAv?$AAa@ 10003128     s3c6410_args:args.obj
 0001:00002174       ??_C@_1CI@CLMEBIJE@?$AA?$CL?$AAO?$AAA?$AAL?$AAA?$AAr?$AAg?$AAs?$AAQ?$AAu?$AAe?$AAr?$AAy?$AA?$CI?$AA?$CF?$AAd?$AA?$CJ?$AA?$AN?$AA?6?$AA?$AA@ 10003174     s3c6410_args:args.obj
 0001:00002230       ??_C@_1HK@PFPKCOID@?$AAE?$AAR?$AAR?$AAO?$AAR?$AA?3?$AA?5?$AAU?$AAs?$AAb?$AAD?$AAb?$AAg?$AAS?$AAe?$AAr?$AA?3?$AA?3?$AA?5?$AAN?$AAo?$AAt?$AA?5?$AAc?$AAo?$AAn?$AAn?$AAe?$AAc?$AAt?$AAe?$AAd@ 10003230     oal_usbdbgsermdd:serifc.obj
 0001:000022b0       ??_C@_1EI@BLNDGIHO@?$AAU?$AAs?$AAb?$AAD?$AAb?$AAg?$AAS?$AAe?$AAr?$AA?3?$AA?3?$AA?5?$AAi?$AAn?$AAi?$AAt?$AAi?$AAa?$AAl?$AAi?$AAz?$AAa?$AAt?$AAi?$AAo?$AAn?$AA?3?$AA?5?$AAF?$AAa?$AAi?$AAl@ 100032b0     oal_usbdbgsermdd:serifc.obj
 0001:000022f8       ??_C@_1EM@BKONKMFM@?$AAU?$AAs?$AAb?$AAD?$AAb?$AAg?$AAS?$AAe?$AAr?$AA?3?$AA?3?$AA?5?$AAi?$AAn?$AAi?$AAt?$AAi?$AAa?$AAl?$AAi?$AAz?$AAa?$AAt?$AAi?$AAo?$AAn?$AA?3?$AA?5?$AAS?$AAu?$AAc?$AAc@ 100032f8     oal_usbdbgsermdd:serifc.obj
 0001:00002348       ??_C@_1GO@GGBLOB@?$AAU?$AAs?$AAb?$AAD?$AAb?$AAg?$AAS?$AAe?$AAr?$AA?3?$AA?3?$AA?5?$AAi?$AAn?$AAi?$AAt?$AAi?$AAa?$AAl?$AAi?$AAz?$AAa?$AAt?$AAi?$AAo?$AAn?$AA?3?$AA?5?$AAU?$AAs?$AAb?$AAS@ 10003348     oal_usbdbgsermdd:serifc.obj
 0001:000023b8       ??_C@_1EA@BOFKDMLH@?$AA?9?$AAU?$AAs?$AAb?$AAD?$AAb?$AAg?$AAS?$AAe?$AAr?$AAi?$AAa?$AAl?$AA_?$AAS?$AAe?$AAn?$AAd?$AA?3?$AA?5?$AAr?$AAe?$AAt?$AAV?$AAa?$AAl?$AA?$DN?$AA?$CF?$AAd?$AA?$AN?$AA?6?$AA?$AA@ 100033b8     oal_usbdbgsermdd:serifc.obj
 0001:000023f8       ??_C@_1GE@EPMJFBEJ@?$AA?5?$AAU?$AAs?$AAb?$AAD?$AAb?$AAg?$AAS?$AAe?$AAr?$AAi?$AAa?$AAl?$AA_?$AAS?$AAe?$AAn?$AAd?$AA?3?$AA?5?$AAE?$AAr?$AAr?$AAo?$AAr?$AA?3?$AA?5?$AAS?$AAe?$AAn?$AAd?$AAD@ 100033f8     oal_usbdbgsermdd:serifc.obj
 0001:00002460       ??_C@_1EM@LCFJBCDF@?$AA?5?$AAU?$AAs?$AAb?$AAD?$AAb?$AAg?$AAS?$AAe?$AAr?$AAi?$AAa?$AAl?$AA_?$AAS?$AAe?$AAn?$AAd?$AA?3?$AA?5?$AAE?$AAr?$AAr?$AAo?$AAr?$AA?3?$AA?5?$AAn?$AAu?$AAl?$AAl?$AA?5@ 10003460     oal_usbdbgsermdd:serifc.obj
 0001:000024ac       ??_C@_1DM@ONBGJBGA@?$AA?$CL?$AAU?$AAs?$AAb?$AAD?$AAb?$AAg?$AAS?$AAe?$AAr?$AAi?$AAa?$AAl?$AA_?$AAS?$AAe?$AAn?$AAd?$AA?3?$AA?5?$AAs?$AAi?$AAz?$AAe?$AA?$DN?$AA?$CF?$AAd?$AA?$AN?$AA?6?$AA?$AA@ 100034ac     oal_usbdbgsermdd:serifc.obj
 0001:000024e8       ??_C@_1EC@OONAKNKA@?$AA?9?$AAU?$AAs?$AAb?$AAD?$AAb?$AAg?$AAS?$AAe?$AAr?$AAi?$AAa?$AAl?$AA_?$AAR?$AAe?$AAc?$AAv?$AA?3?$AA?5?$AAc?$AAb?$AAR?$AAe?$AAc?$AAv?$AAd?$AA?$DN?$AA?$CF?$AAd?$AA?$AN?$AA?6@ 100034e8     oal_usbdbgsermdd:serifc.obj
 0001:00002530       ??_C@_1EM@NGEIEKB@?$AA?5?$AAU?$AAs?$AAb?$AAD?$AAb?$AAg?$AAS?$AAe?$AAr?$AAi?$AAa?$AAl?$AA_?$AAR?$AAe?$AAc?$AAv?$AA?3?$AA?5?$AAE?$AAr?$AAr?$AAo?$AAr?$AA?3?$AA?5?$AAn?$AAu?$AAl?$AAl?$AA?5@ 10003530     oal_usbdbgsermdd:serifc.obj
 0001:00002580       ??_C@_1EC@DMCHBDG@?$AA?$CL?$AAU?$AAs?$AAb?$AAD?$AAb?$AAg?$AAS?$AAe?$AAr?$AAi?$AAa?$AAl?$AA_?$AAR?$AAe?$AAc?$AAv?$AA?3?$AA?5?$AAb?$AAu?$AAf?$AAS?$AAi?$AAz?$AAe?$AA?$DN?$AA?$CF?$AAd?$AA?$AN?$AA?6@ 10003580     oal_usbdbgsermdd:serifc.obj
 0001:00002860       ??_C@_1DM@EEGABLCD@?$AAu?$AAs?$AAb?$AAd?$AAb?$AAg?$AA?3?$AA?9?$AAC?$AAo?$AAn?$AAt?$AAi?$AAn?$AAu?$AAe?$AAR?$AAx?$AAT?$AAr?$AAa?$AAn?$AAs?$AAf?$AAe?$AAr?$AA?4?$AA?$AN?$AA?6?$AA?$AA@ 10003860     oal_usbdbgsermdd:usbser.obj
 0001:000028a0       ??_C@_1GA@PDGHKEBE@?$AAW?$AAA?$AAR?$AAN?$AA?$CB?$AA?3?$AAu?$AAs?$AAb?$AAd?$AAb?$AAg?$AA?3?$AAR?$AAx?$AA?5?$AAx?$AAf?$AAe?$AAr?$AA?5?$AAn?$AAo?$AAt?$AA?5?$AAi?$AAn?$AA?5?$AAp?$AAr?$AAo?$AAg@ 100038a0     oal_usbdbgsermdd:usbser.obj
 0001:00002900       ??_C@_1DM@JPKEEEAI@?$AAu?$AAs?$AAb?$AAd?$AAb?$AAg?$AA?3?$AA?$CL?$AAC?$AAo?$AAn?$AAt?$AAi?$AAn?$AAu?$AAe?$AAR?$AAx?$AAT?$AAr?$AAa?$AAn?$AAs?$AAf?$AAe?$AAr?$AA?4?$AA?$AN?$AA?6?$AA?$AA@ 10003900     oal_usbdbgsermdd:usbser.obj
 0001:0000293c       ??_C@_1DM@EBNMBFGN@?$AAu?$AAs?$AAb?$AAd?$AAb?$AAg?$AA?3?$AA?9?$AAC?$AAo?$AAn?$AAt?$AAi?$AAn?$AAu?$AAe?$AAT?$AAx?$AAT?$AAr?$AAa?$AAn?$AAs?$AAf?$AAe?$AAr?$AA?4?$AA?$AN?$AA?6?$AA?$AA@ 1000393c     oal_usbdbgsermdd:usbser.obj
 0001:00002978       ??_C@_1GA@PPECDDCP@?$AAW?$AAA?$AAR?$AAN?$AA?$CB?$AA?3?$AAu?$AAs?$AAb?$AAd?$AAb?$AAg?$AA?3?$AAT?$AAx?$AA?5?$AAx?$AAf?$AAe?$AAr?$AA?5?$AAn?$AAo?$AAt?$AA?5?$AAi?$AAn?$AA?5?$AAp?$AAr?$AAo?$AAg@ 10003978     oal_usbdbgsermdd:usbser.obj
 0001:000029d8       ??_C@_1EG@PCHOOLPC@?$AAu?$AAs?$AAb?$AAd?$AAb?$AAg?$AA?3?$AA?$CL?$AAC?$AAo?$AAn?$AAt?$AAi?$AAn?$AAu?$AAe?$AAT?$AAx?$AAT?$AAr?$AAa?$AAn?$AAs?$AAf?$AAe?$AAr?$AA?4?$AA?5?$AAe?$AAp?$AA?$CF?$AAd@ 100039d8     oal_usbdbgsermdd:usbser.obj
 0001:00002a20       ??_C@_1EK@EPOFPAAG@?$AAu?$AAs?$AAb?$AAd?$AAb?$AAg?$AA?3?$AA?9?$AAS?$AAe?$AAn?$AAd?$AAC?$AAo?$AAn?$AAt?$AAr?$AAo?$AAl?$AAS?$AAt?$AAa?$AAt?$AAu?$AAs?$AAH?$AAa?$AAn?$AAd?$AAs?$AAh?$AAa@ 10003a20     oal_usbdbgsermdd:usbser.obj
 0001:00002a70       ??_C@_1EK@JMJPNNOH@?$AAu?$AAs?$AAb?$AAd?$AAb?$AAg?$AA?3?$AA?$CL?$AAS?$AAe?$AAn?$AAd?$AAC?$AAo?$AAn?$AAt?$AAr?$AAo?$AAl?$AAS?$AAt?$AAa?$AAt?$AAu?$AAs?$AAH?$AAa?$AAn?$AAd?$AAs?$AAh?$AAa@ 10003a70     oal_usbdbgsermdd:usbser.obj
 0001:00002ac0       ??_C@_1EK@PGNPJKME@?$AAu?$AAs?$AAb?$AAd?$AAb?$AAg?$AA?3?$AA?9?$AAR?$AAe?$AAc?$AAv?$AAC?$AAo?$AAn?$AAt?$AAr?$AAo?$AAl?$AAS?$AAt?$AAa?$AAt?$AAu?$AAs?$AAH?$AAa?$AAn?$AAd?$AAs?$AAh?$AAa@ 10003ac0     oal_usbdbgsermdd:usbser.obj
 0001:00002b10       ??_C@_1EK@CFKFLHCF@?$AAu?$AAs?$AAb?$AAd?$AAb?$AAg?$AA?3?$AA?$CL?$AAR?$AAe?$AAc?$AAv?$AAC?$AAo?$AAn?$AAt?$AAr?$AAo?$AAl?$AAS?$AAt?$AAa?$AAt?$AAu?$AAs?$AAH?$AAa?$AAn?$AAd?$AAs?$AAh?$AAa@ 10003b10     oal_usbdbgsermdd:usbser.obj
 0001:00002b60       ??_C@_1KO@NKOLJPDI@?$AAU?$AAs?$AAb?$AAD?$AAb?$AAg?$AA?3?$AAS?$AAe?$AAt?$AAu?$AAp?$AA?5?$AAr?$AAe?$AAq?$AAu?$AAe?$AAs?$AAt?$AA?5?$AA?$FL?$AAU?$AAS?$AAB?$AA_?$AAR?$AAE?$AAQ?$AAU?$AAE?$AAS@ 10003b60     oal_usbdbgsermdd:usbser.obj
 0001:00002c10       ??_C@_1LM@IOIMEAIM@?$AAU?$AAs?$AAb?$AAD?$AAb?$AAg?$AA?3?$AAS?$AAe?$AAt?$AAu?$AAp?$AA?5?$AAr?$AAe?$AAq?$AAu?$AAe?$AAs?$AAt?$AA?5?$AA?$FL?$AAU?$AAS?$AAB?$AA_?$AAR?$AAE?$AAQ?$AAU?$AAE?$AAS@ 10003c10     oal_usbdbgsermdd:usbser.obj
 0001:00002cd0       ??_C@_1FK@OCHICEMB@?$AAU?$AAs?$AAb?$AAD?$AAb?$AAg?$AA?3?$AA?5?$AAU?$AAs?$AAi?$AAn?$AAg?$AA?5?$AAd?$AAe?$AAf?$AAa?$AAu?$AAl?$AAt?$AA?5?$AAm?$AAa?$AAn?$AAu?$AAf?$AAa?$AAc?$AAt?$AAu?$AAr@ 10003cd0     oal_usbdbgsermdd:usbser.obj
 0001:00002d30       ??_C@_1EO@FJOJGFBF@?$AAU?$AAs?$AAb?$AAD?$AAb?$AAg?$AA?3?$AAU?$AAs?$AAi?$AAn?$AAg?$AA?5?$AAd?$AAe?$AAf?$AAa?$AAu?$AAl?$AAt?$AA?5?$AAp?$AAr?$AAo?$AAd?$AAu?$AAc?$AAt?$AA?5?$AAs?$AAt?$AAr@ 10003d30     oal_usbdbgsermdd:usbser.obj
 0001:00002d80       ??_C@_1IK@OGLDBMOB@?$AAU?$AAs?$AAb?$AAD?$AAb?$AAg?$AA?3?$AAU?$AAs?$AAi?$AAn?$AAg?$AA?5?$AAd?$AAe?$AAf?$AAa?$AAu?$AAl?$AAt?$AA?5?$AAi?$AAm?$AAp?$AAl?$AAe?$AAm?$AAe?$AAn?$AAt?$AAa?$AAt@ 10003d80     oal_usbdbgsermdd:usbser.obj
 0001:00002e10       ??_C@_1FG@DNPHFPP@?$AAE?$AAR?$AAR?$AAO?$AAR?$AA?$CB?$AAU?$AAs?$AAb?$AAD?$AAb?$AAg?$AA?3?$AA?$CK?$AA?$CK?$AA?$CK?$AA?5?$AAU?$AAn?$AAk?$AAn?$AAo?$AAw?$AAn?$AA?5?$AAS?$AAT?$AAR?$AAI?$AAN?$AAG?$AA?5@ 10003e10     oal_usbdbgsermdd:usbser.obj
 0001:00002e68       ??_C@_1KO@KHDHCKLC@?$AAU?$AAs?$AAb?$AAD?$AAb?$AAg?$AA?3?$AAS?$AAe?$AAt?$AAu?$AAp?$AA?5?$AAr?$AAe?$AAq?$AAu?$AAe?$AAs?$AAt?$AA?5?$AA?$FL?$AAU?$AAS?$AAB?$AA_?$AAR?$AAE?$AAQ?$AAU?$AAE?$AAS@ 10003e68     oal_usbdbgsermdd:usbser.obj
 0001:00002f18       ??_C@_1GO@MOJPNABM@?$AAE?$AAR?$AAR?$AAO?$AAR?$AA?$CB?$AAU?$AAs?$AAb?$AAD?$AAb?$AAg?$AA?3?$AA?$CK?$AA?$CK?$AA?$CK?$AA?5?$AAU?$AAn?$AAk?$AAn?$AAo?$AAw?$AAn?$AA?5?$AAG?$AAE?$AAT?$AA_?$AAD?$AAE?$AAS@ 10003f18     oal_usbdbgsermdd:usbser.obj
 0001:00002f88       ??_C@_1DM@PLFFFEOG@?$AAu?$AAs?$AAb?$AAd?$AAb?$AAg?$AA?3?$AA?5?$AA?9?$AAP?$AAr?$AAo?$AAc?$AAe?$AAs?$AAs?$AAS?$AAe?$AAt?$AAu?$AAp?$AAP?$AAa?$AAc?$AAk?$AAe?$AAt?$AA?$AN?$AA?6?$AA?$AA@ 10003f88     oal_usbdbgsermdd:usbser.obj
 0001:00002fc8       ??_C@_1EM@EKHEIPCB@?$AAW?$AAA?$AAR?$AAN?$AA?$CB?$AAu?$AAs?$AAb?$AAd?$AAb?$AAg?$AA?3?$AA?$CK?$AA?$CK?$AA?$CK?$AAU?$AAn?$AAk?$AAn?$AAo?$AAw?$AAn?$AA?5?$AAr?$AAe?$AAq?$AAu?$AAe?$AAs?$AAt?$AA?5?$AA0@ 10003fc8     oal_usbdbgsermdd:usbser.obj
 0001:00003018       ??_C@_1FO@DAIANKAD@?$AAu?$AAs?$AAb?$AAd?$AAb?$AAg?$AA?3?$AAR?$AAe?$AAc?$AAv?$AAd?$AA?4?$AA?5?$AAU?$AAS?$AAB?$AA_?$AAR?$AAE?$AAQ?$AAU?$AAE?$AAS?$AAT?$AA_?$AAS?$AAE?$AAT?$AA_?$AAC?$AAO@ 10004018     oal_usbdbgsermdd:usbser.obj
 0001:00003078       ??_C@_1FC@EEMMNPNH@?$AAu?$AAs?$AAb?$AAd?$AAb?$AAg?$AA?3?$AAR?$AAe?$AAc?$AAv?$AAd?$AA?4?$AA?5?$AAU?$AAS?$AAB?$AA_?$AAR?$AAE?$AAQ?$AAU?$AAE?$AAS?$AAT?$AA_?$AAS?$AAE?$AAT?$AA_?$AAA?$AAD@ 10004078     oal_usbdbgsermdd:usbser.obj
 0001:000030d0       ??_C@_1EG@JCBDGIFO@?$AAW?$AAA?$AAR?$AAN?$AA?$CB?$AAu?$AAs?$AAb?$AAd?$AAb?$AAg?$AA?3?$AA?$CK?$AA?$CK?$AA?$CK?$AAR?$AAe?$AAq?$AAu?$AAe?$AAs?$AAt?$AAT?$AAy?$AAp?$AAe?$AA?$DN?$AA?$DN?$AA0?$AAx?$AA0?$AA2@ 100040d0     oal_usbdbgsermdd:usbser.obj
 0001:00003118       ??_C@_1EG@JAOBPOOI@?$AAW?$AAA?$AAR?$AAN?$AA?$CB?$AAU?$AAs?$AAb?$AAD?$AAb?$AAg?$AA?3?$AA?$CK?$AA?$CK?$AA?$CK?$AAR?$AAe?$AAq?$AAu?$AAe?$AAs?$AAt?$AAT?$AAy?$AAp?$AAe?$AA?$DN?$AA?$DN?$AA0?$AAx?$AA0?$AA2@ 10004118     oal_usbdbgsermdd:usbser.obj
 0001:00003160       ??_C@_1II@IIACOAJM@?$AAW?$AAA?$AAR?$AAN?$AA?$CB?$AAU?$AAs?$AAb?$AAD?$AAb?$AAg?$AA?3?$AAR?$AAe?$AAq?$AAu?$AAe?$AAs?$AAt?$AAT?$AAy?$AAp?$AAe?$AA?$DN?$AA?$DN?$AA0?$AAx?$AA?$CF?$AAd?$AA?0?$AA?5?$AAU@ 10004160     oal_usbdbgsermdd:usbser.obj
 0001:000031e8       ??_C@_1GG@ELMCIADF@?$AAU?$AAs?$AAb?$AAD?$AAb?$AAg?$AA?3?$AAS?$AAe?$AAt?$AAu?$AAp?$AA?5?$AAr?$AAe?$AAq?$AAu?$AAe?$AAs?$AAt?$AA?5?$AA?$FL?$AAS?$AAE?$AAT?$AA_?$AAC?$AAO?$AAN?$AAT?$AAR?$AAO@ 100041e8     oal_usbdbgsermdd:usbser.obj
 0001:00003250       ??_C@_1JK@KEHFADFH@?$AAE?$AAR?$AAR?$AAO?$AAR?$AA?$CB?$AAU?$AAs?$AAb?$AAD?$AAb?$AAg?$AA?3?$AAU?$AAn?$AAr?$AAe?$AAc?$AAo?$AAg?$AAn?$AAi?$AAz?$AAe?$AAd?$AA?5?$AAS?$AAe?$AAt?$AAu?$AAp?$AA?5@ 10004250     oal_usbdbgsermdd:usbser.obj
 0001:000032ec       ??_C@_1DM@HKFMFKK@?$AAu?$AAs?$AAb?$AAd?$AAb?$AAg?$AA?3?$AA?5?$AA?$CL?$AAP?$AAr?$AAo?$AAc?$AAe?$AAs?$AAs?$AAS?$AAe?$AAt?$AAu?$AAp?$AAP?$AAa?$AAc?$AAk?$AAe?$AAt?$AA?$AN?$AA?6?$AA?$AA@ 100042ec     oal_usbdbgsermdd:usbser.obj
 0001:00003328       ??_C@_1II@HLFCHCEL@?$AAE?$AAR?$AAR?$AAO?$AAR?$AA?$CB?$AAu?$AAs?$AAb?$AAd?$AAb?$AAg?$AA?3?$AA?5?$AAF?$AAa?$AAi?$AAl?$AAe?$AAd?$AA?5?$AAt?$AAo?$AA?5?$AAr?$AAe?$AAt?$AAr?$AAi?$AAe?$AAv?$AAe@ 10004328     oal_usbdbgsermdd:usbser.obj
 0001:000033b0       ??_C@_1FA@HOKHFHCM@?$AAu?$AAs?$AAb?$AAd?$AAb?$AAg?$AA?3?$AA?9?$AAU?$AAs?$AAb?$AAS?$AAe?$AAr?$AAi?$AAa?$AAl?$AA_?$AAE?$AAv?$AAe?$AAn?$AAt?$AAH?$AAa?$AAn?$AAd?$AAl?$AAe?$AAr?$AA?4?$AAm@ 100043b0     oal_usbdbgsermdd:usbser.obj
 0001:00003400       ??_C@_1EO@LAAPGPJE@?$AAE?$AAR?$AAR?$AAO?$AAR?$AA?$CB?$AAU?$AAs?$AAb?$AAD?$AAb?$AAg?$AA?3?$AA?5?$AAU?$AAs?$AAb?$AAS?$AAe?$AAr?$AAi?$AAa?$AAl?$AA_?$AAE?$AAv?$AAe?$AAn?$AAt?$AAH?$AAa?$AAn@ 10004400     oal_usbdbgsermdd:usbser.obj
 0001:00003450       ??_C@_1EC@MBJNKCAG@?$AAu?$AAs?$AAb?$AAd?$AAb?$AAg?$AA?3?$AA?$CL?$AAU?$AAs?$AAb?$AAS?$AAe?$AAr?$AAi?$AAa?$AAl?$AA_?$AAE?$AAv?$AAe?$AAn?$AAt?$AAH?$AAa?$AAn?$AAd?$AAl?$AAe?$AAr?$AA?$AN?$AA?6@ 10004450     oal_usbdbgsermdd:usbser.obj
 0001:00003494       ??_C@_1DM@DJEMBLJL@?$AAu?$AAs?$AAb?$AAd?$AAb?$AAg?$AA?3?$AA?9?$AAU?$AAs?$AAb?$AAS?$AAe?$AAr?$AAi?$AAa?$AAl?$AA_?$AAR?$AAe?$AAc?$AAv?$AAD?$AAa?$AAt?$AAa?$AA?4?$AA?$AN?$AA?6?$AA?$AA@ 10004494     oal_usbdbgsermdd:usbser.obj
 0001:000034d0       ??_C@_1IE@FIACGLLJ@?$AAE?$AAR?$AAR?$AAO?$AAR?$AA?$CB?$AAu?$AAs?$AAb?$AAd?$AAb?$AAg?$AA?3?$AAU?$AAs?$AAb?$AAS?$AAe?$AAr?$AAi?$AAa?$AAl?$AA_?$AAR?$AAe?$AAc?$AAv?$AAD?$AAa?$AAt?$AAa?$AA?3@ 100044d0     oal_usbdbgsermdd:usbser.obj
 0001:00003554       ??_C@_1DM@OCIIEELA@?$AAu?$AAs?$AAb?$AAd?$AAb?$AAg?$AA?3?$AA?$CL?$AAU?$AAs?$AAb?$AAS?$AAe?$AAr?$AAi?$AAa?$AAl?$AA_?$AAR?$AAe?$AAc?$AAv?$AAD?$AAa?$AAt?$AAa?$AA?4?$AA?$AN?$AA?6?$AA?$AA@ 10004554     oal_usbdbgsermdd:usbser.obj
 0001:00003590       ??_C@_1IK@MHLPJLEP@?$AAE?$AAR?$AAR?$AAO?$AAR?$AA?$CB?$AAu?$AAs?$AAb?$AAd?$AAb?$AAg?$AA?3?$AAI?$AAn?$AAc?$AAo?$AAr?$AAr?$AAe?$AAc?$AAt?$AA?5?$AAU?$AAS?$AAB?$AAD?$AAB?$AAG?$AAP?$AAD?$AAD@ 10004590     oal_usbdbgsermdd:usbser.obj
 0001:00003620       ??_C@_1EM@PFDBNAOK@?$AAE?$AAR?$AAR?$AAO?$AAR?$AA?$CB?$AAu?$AAs?$AAb?$AAd?$AAb?$AAg?$AA?3?$AAU?$AAs?$AAb?$AAD?$AAb?$AAg?$AAP?$AAd?$AAd?$AA_?$AAI?$AAn?$AAi?$AAt?$AA?5?$AAf?$AAa?$AAi?$AAl@ 10004620     oal_usbdbgsermdd:usbser.obj
 0001:0000366c       ??_C@_1DK@OFBFGJAC@?$AAu?$AAs?$AAb?$AAd?$AAb?$AAg?$AA?3?$AA?9?$AAS?$AAe?$AAn?$AAd?$AAR?$AAe?$AAc?$AAv?$AAD?$AAa?$AAt?$AAa?$AA?4?$AA?5?$AAe?$AAp?$AA?$CF?$AAd?$AA?$AN?$AA?6?$AA?$AA@ 1000466c     oal_usbdbgsermdd:usbser.obj
 0001:000036a8       ??_C@_1JC@PINGABHA@?$AAE?$AAR?$AAR?$AAO?$AAR?$AA?$CB?$AAU?$AAs?$AAb?$AAD?$AAb?$AAg?$AA?3?$AA?5?$AAe?$AAp?$AA?$CF?$AAd?$AA?5?$AAd?$AAi?$AAr?$AA?$DN?$AA?$CF?$AAd?$AA?5?$AAt?$AAi?$AAm?$AAe?$AAd?$AA?5@ 100046a8     oal_usbdbgsermdd:usbser.obj
 0001:0000373c       ??_C@_1DK@BJOFPIEO@?$AAu?$AAs?$AAb?$AAd?$AAb?$AAg?$AA?3?$AA?$CL?$AAS?$AAe?$AAn?$AAd?$AAR?$AAe?$AAc?$AAv?$AAD?$AAa?$AAt?$AAa?$AA?4?$AA?5?$AAe?$AAp?$AA?$CF?$AAd?$AA?$AN?$AA?6?$AA?$AA@ 1000473c     oal_usbdbgsermdd:usbser.obj
 0001:00003838       ??_C@_1EO@LLJEOBNI@?$AAR?$AAN?$AAd?$AAi?$AAs?$AA?3?$AA?3?$AA?5?$AAO?$AAI?$AAD?$AA?$FL?$AA?$CF?$AAx?$AA?$FN?$AA?5?$AAn?$AAo?$AAt?$AA?5?$AAy?$AAe?$AAt?$AA?5?$AAi?$AAm?$AAp?$AAl?$AAe?$AAm?$AAe?$AAn@ 10004838     oal_usbdbgrndismdd:rndismin.obj
 0001:00003888       ??_C@_1FI@GBAKEDI@?$AAR?$AAN?$AAd?$AAi?$AAs?$AA?3?$AA?3?$AA?5?$AAN?$AAe?$AAw?$AA?5?$AAf?$AAi?$AAl?$AAt?$AAe?$AAr?$AA?5?$AAs?$AAe?$AAt?$AA?3?$AA?5?$AA?$FL?$AA0?$AAx?$AA?$CF?$AAx?$AA?$FN?$AA?5?$AA?9@ 10004888     oal_usbdbgrndismdd:rndismin.obj
 0001:000038e0       ??_C@_1IA@ICOPJIHL@?$AAR?$AAN?$AAd?$AAi?$AAs?$AA?3?$AA?3?$AA?5?$AAO?$AAu?$AAt?$AAg?$AAo?$AAi?$AAn?$AAg?$AA?5?$AAp?$AAk?$AAt?$AA?5?$AAi?$AAs?$AA?5?$AAb?$AAi?$AAg?$AAg?$AAe?$AAr?$AA?5?$AAt@ 100048e0     oal_usbdbgrndismdd:rndismin.obj
 0001:00003960       ??_C@_1GO@FIKPACAE@?$AAR?$AAN?$AAd?$AAi?$AAs?$AA?3?$AA?3?$AA?5?$AAE?$AAR?$AAR?$AAO?$AAR?$AA?$CB?$AA?5?$AAO?$AAu?$AAt?$AAg?$AAo?$AAi?$AAn?$AAg?$AA?5?$AAp?$AAk?$AAt?$AA?5?$AAi?$AAs?$AA?5?$AAt@ 10004960     oal_usbdbgrndismdd:rndismin.obj
 0001:000039d0       ??_C@_1DG@DPDLHDA@?$AAR?$AAN?$AAd?$AAi?$AAs?$AA?3?$AA?3?$AA?5?$AAS?$AAe?$AAn?$AAd?$AAi?$AAn?$AAg?$AA?5?$AAM?$AAs?$AAg?$AA?5?$AA?$FL?$AA?$CF?$AAs?$AA?$FN?$AA?$AN?$AA?6?$AA?$AA@ 100049d0     oal_usbdbgrndismdd:rndismin.obj
 0001:00003a08       ??_C@_1BC@CMJBNADL@?$AAU?$AAN?$AAK?$AAN?$AAO?$AAW?$AAN?$AA?$CB?$AA?$AA@ 10004a08     oal_usbdbgrndismdd:rndismin.obj
 0001:00003a1c       ??_C@_1CA@NMLMHJBP@?$AAK?$AAE?$AAE?$AAP?$AAA?$AAL?$AAI?$AAV?$AAE?$AA?9?$AAC?$AAM?$AAP?$AAL?$AAT?$AA?$AA@ 10004a1c     oal_usbdbgrndismdd:rndismin.obj
 0001:00003a3c       ??_C@_1BI@FKAJDLHF@?$AAR?$AAE?$AAS?$AAE?$AAT?$AA?9?$AAC?$AAM?$AAP?$AAL?$AAT?$AA?$AA@ 10004a3c     oal_usbdbgrndismdd:rndismin.obj
 0001:00003a54       ??_C@_1BE@PHFGPHFI@?$AAS?$AAE?$AAT?$AA?9?$AAC?$AAM?$AAP?$AAL?$AAT?$AA?$AA@ 10004a54     oal_usbdbgrndismdd:rndismin.obj
 0001:00003a68       ??_C@_1BI@JMCPKMJ@?$AAQ?$AAU?$AAE?$AAR?$AAY?$AA?9?$AAC?$AAM?$AAP?$AAL?$AAT?$AA?$AA@ 10004a68     oal_usbdbgrndismdd:rndismin.obj
 0001:00003a80       ??_C@_1BG@HOOBGILA@?$AAI?$AAN?$AAI?$AAT?$AA?9?$AAC?$AAM?$AAP?$AAL?$AAT?$AA?$AA@ 10004a80     oal_usbdbgrndismdd:rndismin.obj
 0001:00003a98       ??_C@_1MK@KFLLFAAK@?$AAR?$AAN?$AAd?$AAi?$AAs?$AA?3?$AA?3?$AA?5?$AAS?$AAe?$AAn?$AAd?$AAR?$AAn?$AAd?$AAi?$AAs?$AAM?$AAe?$AAs?$AAs?$AAa?$AAg?$AAe?$AA?3?$AA?5?$AAR?$AAE?$AAM?$AAO?$AAT?$AAE@ 10004a98     oal_usbdbgrndismdd:rndismin.obj
 0001:00003b68       ??_C@_1HG@EOOHAPN@?$AAE?$AAR?$AAR?$AAO?$AAR?$AA?3?$AA?5?$AAS?$AAe?$AAn?$AAd?$AAR?$AAn?$AAd?$AAi?$AAs?$AAM?$AAe?$AAs?$AAs?$AAa?$AAg?$AAe?$AA?3?$AA?3?$AA?5?$AAI?$AAn?$AAc?$AAo?$AAr?$AAr@ 10004b68     oal_usbdbgrndismdd:rndismin.obj
 0001:00003be0       ??_C@_1HE@KDENLFIG@?$AAI?$AAN?$AAF?$AAO?$AA?3?$AA?5?$AAR?$AAN?$AAd?$AAi?$AAs?$AA?3?$AA?3?$AA?5?$AAN?$AAo?$AAt?$AA?5?$AAi?$AAn?$AAi?$AAt?$AAi?$AAa?$AAl?$AAi?$AAz?$AAe?$AAd?$AA?4?$AA?5?$AAA@ 10004be0     oal_usbdbgrndismdd:rndismin.obj
 0001:00003c58       ??_C@_1EA@IINCJPEC@?$AAR?$AAN?$AAd?$AAi?$AAs?$AA?3?$AA?3?$AA?5?$AAi?$AAn?$AAi?$AAt?$AAi?$AAa?$AAl?$AAi?$AAz?$AAa?$AAt?$AAi?$AAo?$AAn?$AA?3?$AA?5?$AAF?$AAa?$AAi?$AAl?$AA?$CB?$AA?$AN?$AA?6?$AA?$AA@ 10004c58     oal_usbdbgrndismdd:rndismin.obj
 0001:00003c98       ??_C@_1EE@GAIGHNKP@?$AAR?$AAN?$AAd?$AAi?$AAs?$AA?3?$AA?3?$AA?5?$AAi?$AAn?$AAi?$AAt?$AAi?$AAa?$AAl?$AAi?$AAz?$AAa?$AAt?$AAi?$AAo?$AAn?$AA?3?$AA?5?$AAS?$AAu?$AAc?$AAc?$AAe?$AAs?$AAs?$AA?$AN@ 10004c98     oal_usbdbgrndismdd:rndismin.obj
 0001:00003ce0       ??_C@_1EO@DEHOGKPH@?$AAU?$AAs?$AAb?$AAD?$AAb?$AAg?$AAR?$AAn?$AAd?$AAi?$AAs?$AA?3?$AA?3?$AA?5?$AAW?$AAa?$AAi?$AAt?$AAi?$AAn?$AAg?$AA?5?$AAt?$AAo?$AA?5?$AAc?$AAo?$AAn?$AAn?$AAe?$AAc?$AAt@ 10004ce0     oal_usbdbgrndismdd:rndismin.obj
 0001:00003d30       ??_C@_1GE@KJKJEDFN@?$AAE?$AAR?$AAR?$AAO?$AAR?$AA?3?$AA?5?$AAR?$AAN?$AAd?$AAi?$AAs?$AA?3?$AA?3?$AA?5?$AAU?$AAs?$AAb?$AAR?$AAn?$AAd?$AAi?$AAs?$AA_?$AAI?$AAn?$AAi?$AAt?$AA?5?$AAf?$AAa?$AAi@ 10004d30     oal_usbdbgrndismdd:rndismin.obj
 0001:00003d98       ??_C@_1FM@LEFKPIKI@?$AAR?$AAN?$AAd?$AAi?$AAs?$AA?3?$AA?3?$AA?5?$AAI?$AAn?$AAi?$AAt?$AA?3?$AA?5?$AAM?$AAA?$AAC?$AA?5?$AAa?$AAd?$AAd?$AAr?$AAe?$AAs?$AAs?$AA?3?$AA?$CF?$AAx?$AA?9?$AA?$CF?$AAx?$AA?9@ 10004d98     oal_usbdbgrndismdd:rndismin.obj
 0001:00003df8       ??_C@_1HA@MEDGCFNO@?$AAE?$AAR?$AAR?$AAO?$AAR?$AA?3?$AA?5?$AAR?$AAN?$AAd?$AAi?$AAs?$AA?3?$AA?3?$AA?5?$AAE?$AAm?$AAp?$AAt?$AAy?$AA?5?$AAM?$AAA?$AAC?$AA?5?$AAa?$AAd?$AAd?$AAr?$AAe?$AAs?$AAs@ 10004df8     oal_usbdbgrndismdd:rndismin.obj
 0001:00003e68       ??_C@_1DM@FABIDKFF@?$AA?9?$AAR?$AAn?$AAd?$AAi?$AAs?$AA_?$AAS?$AAe?$AAn?$AAd?$AAF?$AAr?$AAa?$AAm?$AAe?$AA?3?$AA?5?$AAr?$AAe?$AAt?$AAV?$AAa?$AAl?$AA?$DN?$AA?$CF?$AAd?$AA?$AN?$AA?6?$AA?$AA@ 10004e68     oal_usbdbgrndismdd:rndismin.obj
 0001:00003ea4       ??_C@_1DI@HBMKOBCD@?$AA?$CL?$AAR?$AAn?$AAd?$AAi?$AAs?$AA_?$AAS?$AAe?$AAn?$AAd?$AAF?$AAr?$AAa?$AAm?$AAe?$AA?3?$AA?5?$AAs?$AAi?$AAz?$AAe?$AA?$DN?$AA?$CF?$AAd?$AA?$AN?$AA?6?$AA?$AA@ 10004ea4     oal_usbdbgrndismdd:rndismin.obj
 0001:00003ee0       ??_C@_1EG@PMNJEFCO@?$AA?9?$AAR?$AAn?$AAd?$AAi?$AAs?$AA_?$AAR?$AAe?$AAc?$AAv?$AAF?$AAr?$AAa?$AAm?$AAe?$AA?3?$AA?5?$AAc?$AAb?$AAR?$AAe?$AAc?$AAv?$AAd?$AAD?$AAa?$AAt?$AAa?$AA?$DN?$AA?$CF?$AAd@ 10004ee0     oal_usbdbgrndismdd:rndismin.obj
 0001:00003f28       ??_C@_1GO@LCPOHNPF@?$AAE?$AAR?$AAR?$AAO?$AAR?$AA?3?$AA?5?$AAR?$AAN?$AAd?$AAi?$AAs?$AA?3?$AA?3?$AA?5?$AAR?$AAe?$AAc?$AAv?$AAF?$AAr?$AAa?$AAm?$AAe?$AA?3?$AA?5?$AAc?$AAb?$AAR?$AAe?$AAc?$AAv@ 10004f28     oal_usbdbgrndismdd:rndismin.obj
 0001:00003f98       ??_C@_1DO@LFJGDMBL@?$AA?$CL?$AAR?$AAn?$AAd?$AAi?$AAs?$AA_?$AAR?$AAe?$AAc?$AAv?$AAF?$AAr?$AAa?$AAm?$AAe?$AA?3?$AA?5?$AAb?$AAu?$AAf?$AAS?$AAi?$AAz?$AAe?$AA?$DN?$AA?$CF?$AAd?$AA?$AN?$AA?6?$AA?$AA@ 10004f98     oal_usbdbgrndismdd:rndismin.obj
 0001:00003fd8       ??_C@_1GM@IMCAEPLE@?$AAU?$AAS?$AAB?$AAD?$AAB?$AAG?$AAR?$AAN?$AAD?$AAI?$AAS?$AA?3?$AA?3?$AA?5?$AAU?$AAn?$AAk?$AAn?$AAo?$AAw?$AAn?$AA?5?$AAR?$AAN?$AAD?$AAI?$AAS?$AA?5?$AAm?$AAs?$AAg?$AA?0@ 10004fd8     oal_usbdbgrndismdd:rndismin.obj
 0001:00004048       ??_C@_1FO@LOKANOGL@?$AAR?$AAN?$AAd?$AAi?$AAs?$AA?3?$AA?3?$AA?5?$AAr?$AAc?$AAv?$AA?5?$AAR?$AAE?$AAM?$AAO?$AAT?$AAE?$AA_?$AAN?$AAD?$AAI?$AAS?$AA_?$AAR?$AAE?$AAS?$AAE?$AAT?$AA_?$AAM?$AAS@ 10005048     oal_usbdbgrndismdd:rndismin.obj
 0001:000040a8       ??_C@_1FO@LCGAJCLO@?$AAR?$AAN?$AAd?$AAi?$AAs?$AA?3?$AA?3?$AA?5?$AAr?$AAe?$AAc?$AAv?$AA?5?$AAR?$AAE?$AAM?$AAO?$AAT?$AAE?$AA_?$AAN?$AAD?$AAI?$AAS?$AA_?$AAH?$AAA?$AAL?$AAT?$AA_?$AAM?$AAS@ 100050a8     oal_usbdbgrndismdd:rndismin.obj
 0001:00004108       ??_C@_1EK@ECMJGLNN@?$AAR?$AAN?$AAd?$AAi?$AAs?$AA?3?$AA?3?$AA?5?$AAR?$AAE?$AAM?$AAO?$AAT?$AAE?$AA_?$AAN?$AAD?$AAI?$AAS?$AA_?$AAK?$AAE?$AAE?$AAP?$AAA?$AAL?$AAI?$AAV?$AAE?$AA_?$AAM?$AAS@ 10005108     oal_usbdbgrndismdd:rndismin.obj
 0001:00004158       ??_C@_1GA@ELHAAJBG@?$AAR?$AAN?$AAd?$AAi?$AAs?$AA?3?$AA?3?$AA?5?$AAQ?$AAu?$AAe?$AAr?$AAy?$AA?3?$AA?5?$AAI?$AAD?$AA?$FL?$AA0?$AAx?$AA?$CF?$AAx?$AA?$FN?$AA?3?$AAO?$AAI?$AAD?$AA?$FL?$AA0?$AAx?$AA?$CF?$AAx@ 10005158     oal_usbdbgrndismdd:rndismin.obj
 0001:000041b8       ??_C@_1HA@IIGNPPEL@?$AAR?$AAN?$AAd?$AAi?$AAs?$AA?3?$AA?3?$AA?5?$AAS?$AAe?$AAn?$AAd?$AA?5?$AAI?$AAn?$AAi?$AAt?$AAi?$AAa?$AAl?$AAi?$AAz?$AAe?$AAC?$AAo?$AAm?$AAp?$AAl?$AAe?$AAt?$AAe?$AA?5@ 100051b8     oal_usbdbgrndismdd:rndismin.obj
 0001:00004228       ??_C@_1FM@HBPDHFOB@?$AAR?$AAN?$AAd?$AAi?$AAs?$AAM?$AAi?$AAn?$AAi?$AA?5?$AAE?$AAr?$AAr?$AA?$CB?$AA?$CB?$AA?5?$AAu?$AAn?$AAs?$AAu?$AAp?$AAp?$AAo?$AAr?$AAt?$AAe?$AAd?$AA?5?$AAR?$AAN?$AAD?$AAI@ 10005228     oal_usbdbgrndismdd:rndismin.obj
 0001:00004288       ??_C@_1GC@CJIPHNOB@?$AAR?$AAN?$AAd?$AAi?$AAs?$AA?3?$AA?3?$AA?5?$AAR?$AAe?$AAq?$AAI?$AAD?$AA?$FL?$AA0?$AAx?$AA?$CF?$AAx?$AA?$FN?$AA?5?$AA?9?$AA?5?$AAV?$AAe?$AAr?$AA?$FL?$AA?$CF?$AAd?$AA?9?$AA?$CF?$AAd?$AA?$FN@ 10005288     oal_usbdbgrndismdd:rndismin.obj
 0001:000042f0       ??_C@_1IO@GMFFIAPN@?$AAE?$AAR?$AAR?$AAO?$AAR?$AA?3?$AA?5?$AAR?$AAN?$AAd?$AAi?$AAs?$AA?3?$AA?3?$AA?5?$AAC?$AAu?$AAr?$AAr?$AAe?$AAn?$AAt?$AA?5?$AAc?$AAo?$AAd?$AAe?$AAp?$AAa?$AAt?$AAh?$AA?5@ 100052f0     oal_usbdbgrndismdd:rndismin.obj
 0001:00004380       ??_C@_1EO@FIIDCAPI@?$AAR?$AAN?$AAd?$AAi?$AAs?$AA?3?$AA?3?$AA?5?$AAD?$AAr?$AAo?$AAp?$AAp?$AAi?$AAn?$AAg?$AA?5?$AAR?$AAn?$AAd?$AAi?$AAs?$AAM?$AAe?$AAs?$AAs?$AAa?$AAg?$AAe?$AAT?$AAy?$AAp@ 10005380     oal_usbdbgrndismdd:rndismin.obj
 0001:000043d0       ??_C@_1GK@PFPJBJOB@?$AAR?$AAN?$AAd?$AAi?$AAs?$AA?3?$AA?3?$AA?5?$AAP?$AAr?$AAo?$AAc?$AAe?$AAs?$AAs?$AAi?$AAn?$AAg?$AA?5?$AAR?$AAn?$AAd?$AAi?$AAs?$AAM?$AAe?$AAs?$AAs?$AAa?$AAg?$AAe?$AA?5@ 100053d0     oal_usbdbgrndismdd:rndismin.obj
 0001:0000443c       ??_C@_1CA@PJGLJOCC@?$AAR?$AAN?$AAD?$AAI?$AAS?$AA_?$AAK?$AAE?$AAE?$AAP?$AAA?$AAL?$AAI?$AAV?$AAE?$AA?$AA@ 1000543c     oal_usbdbgrndismdd:rndismin.obj
 0001:0000445c       ??_C@_1BO@PAGDIAJL@?$AAR?$AAN?$AAD?$AAI?$AAS?$AA_?$AAI?$AAN?$AAD?$AAI?$AAC?$AAA?$AAT?$AAE?$AA?$AA@ 1000545c     oal_usbdbgrndismdd:rndismin.obj
 0001:0000447c       ??_C@_1BK@JKMAFAPD@?$AAR?$AAN?$AAD?$AAI?$AAS?$AA_?$AAP?$AAA?$AAC?$AAK?$AAE?$AAT?$AA?$AA@ 1000547c     oal_usbdbgrndismdd:rndismin.obj
 0001:00004498       ??_C@_1BI@BMFLPMFI@?$AAR?$AAN?$AAD?$AAI?$AAS?$AA_?$AAR?$AAE?$AAS?$AAE?$AAT?$AA?$AA@ 10005498     oal_usbdbgrndismdd:rndismin.obj
 0001:000044b0       ??_C@_1BE@JKHDGLNO@?$AAR?$AAN?$AAD?$AAI?$AAS?$AA_?$AAS?$AAE?$AAT?$AA?$AA@ 100054b0     oal_usbdbgrndismdd:rndismin.obj
 0001:000044c4       ??_C@_1BI@BKAGHNBC@?$AAR?$AAN?$AAD?$AAI?$AAS?$AA_?$AAQ?$AAU?$AAE?$AAR?$AAY?$AA?$AA@ 100054c4     oal_usbdbgrndismdd:rndismin.obj
 0001:000044dc       ??_C@_1BG@DFDFKGNE@?$AAR?$AAN?$AAD?$AAI?$AAS?$AA_?$AAH?$AAA?$AAL?$AAT?$AA?$AA@ 100054dc     oal_usbdbgrndismdd:rndismin.obj
 0001:000044f4       ??_C@_1CC@NEOBIJCH@?$AAR?$AAN?$AAD?$AAI?$AAS?$AA_?$AAI?$AAN?$AAI?$AAT?$AAI?$AAA?$AAL?$AAI?$AAZ?$AAE?$AA?$AA@ 100054f4     oal_usbdbgrndismdd:rndismin.obj
 0001:00004518       ??_C@_1HG@OMNJDLDL@?$AAE?$AAR?$AAR?$AAO?$AAR?$AA?3?$AAu?$AAs?$AAb?$AAd?$AAb?$AAg?$AA?3?$AAR?$AAE?$AAM?$AAO?$AAT?$AAE?$AA_?$AAN?$AAD?$AAI?$AAS?$AA_?$AAP?$AAA?$AAC?$AAK?$AAE?$AAT?$AA_@ 10005518     oal_usbdbgrndismdd:rndismin.obj
 0001:00004870       ??_C@_1CC@JPENPCAM@?$AA0?$AA1?$AA2?$AA3?$AA4?$AA5?$AA6?$AA7?$AA8?$AA9?$AAA?$AAB?$AAC?$AAD?$AAE?$AAF?$AA?$AA@ 10005870     oal_usbdbgrndismdd:usbrndis.obj
 0001:00004898       ??_C@_1KM@MJOEKGOG@?$AAU?$AAs?$AAb?$AAD?$AAb?$AAg?$AA?3?$AAG?$AAE?$AAT?$AA_?$AAD?$AAE?$AAS?$AAC?$AAR?$AAI?$AAP?$AAT?$AAO?$AAR?$AA?5?$AAr?$AAe?$AAq?$AAu?$AAe?$AAs?$AAt?$AA?3?$AA0?$AAx@ 10005898     oal_usbdbgrndismdd:usbrndis.obj
 0001:00004948       ??_C@_1FO@IGJDCKKF@?$AAu?$AAs?$AAb?$AAd?$AAb?$AAg?$AA?3?$AAS?$AAe?$AAn?$AAt?$AA?5?$AAR?$AAN?$AAD?$AAI?$AAS?$AA?5?$AAM?$AAe?$AAs?$AAs?$AAa?$AAg?$AAe?$AA?5?$AAo?$AAn?$AA?5?$AAE?$AAP?$AA0@ 10005948     oal_usbdbgrndismdd:usbrndis.obj
 0001:000049a8       ??_C@_1GG@DMEFOKLB@?$AAU?$AAs?$AAb?$AAD?$AAb?$AAg?$AA?3?$AAS?$AAe?$AAt?$AAu?$AAp?$AA?5?$AAr?$AAe?$AAq?$AAu?$AAe?$AAs?$AAt?$AA?5?$AA?$FL?$AAS?$AAE?$AAN?$AAD?$AA_?$AAE?$AAN?$AAC?$AAA?$AAP@ 100059a8     oal_usbdbgrndismdd:usbrndis.obj
 0001:00004a10       ??_C@_1GG@GOFFFBBF@?$AAU?$AAs?$AAb?$AAD?$AAb?$AAg?$AA?3?$AAS?$AAe?$AAt?$AAu?$AAp?$AA?5?$AAr?$AAe?$AAq?$AAu?$AAe?$AAs?$AAt?$AA?5?$AA?$FL?$AAG?$AAE?$AAT?$AA_?$AAE?$AAN?$AAC?$AAA?$AAP?$AAS@ 10005a10     oal_usbdbgrndismdd:usbrndis.obj
 0001:00004a78       ??_C@_1EO@LEEDCEPH@?$AAu?$AAs?$AAb?$AAd?$AAb?$AAg?$AA?3?$AA?9?$AAU?$AAs?$AAb?$AAR?$AAn?$AAd?$AAi?$AAs?$AA_?$AAE?$AAv?$AAe?$AAn?$AAt?$AAH?$AAa?$AAn?$AAd?$AAl?$AAe?$AAr?$AA?4?$AAm?$AAs@ 10005a78     oal_usbdbgrndismdd:usbrndis.obj
 0001:00004ac8       ??_C@_1EK@HBDCLJFE@?$AAE?$AAR?$AAR?$AAO?$AAR?$AA?$CB?$AAu?$AAs?$AAb?$AAd?$AAb?$AAg?$AA?3?$AAU?$AAs?$AAb?$AAR?$AAn?$AAd?$AAi?$AAs?$AA_?$AAE?$AAv?$AAe?$AAn?$AAt?$AAH?$AAa?$AAn?$AAd?$AAl@ 10005ac8     oal_usbdbgrndismdd:usbrndis.obj
 0001:00004b18       ??_C@_1EA@GJNPMCCB@?$AAu?$AAs?$AAb?$AAd?$AAb?$AAg?$AA?3?$AA?$CL?$AAU?$AAs?$AAb?$AAR?$AAn?$AAd?$AAi?$AAs?$AA_?$AAE?$AAv?$AAe?$AAn?$AAt?$AAH?$AAa?$AAn?$AAd?$AAl?$AAe?$AAr?$AA?$AN?$AA?6?$AA?$AA@ 10005b18     oal_usbdbgrndismdd:usbrndis.obj
 0001:00004b58       ??_C@_1DK@KHNHBNCB@?$AAu?$AAs?$AAb?$AAd?$AAb?$AAg?$AA?3?$AA?9?$AAU?$AAs?$AAb?$AAR?$AAn?$AAd?$AAi?$AAs?$AA_?$AAR?$AAe?$AAc?$AAv?$AAD?$AAa?$AAt?$AAa?$AA?4?$AA?$AN?$AA?6?$AA?$AA@ 10005b58     oal_usbdbgrndismdd:usbrndis.obj
 0001:00004b94       ??_C@_1DK@FLCHIMGN@?$AAu?$AAs?$AAb?$AAd?$AAb?$AAg?$AA?3?$AA?$CL?$AAU?$AAs?$AAb?$AAR?$AAn?$AAd?$AAi?$AAs?$AA_?$AAR?$AAe?$AAc?$AAv?$AAD?$AAa?$AAt?$AAa?$AA?4?$AA?$AN?$AA?6?$AA?$AA@ 10005b94     oal_usbdbgrndismdd:usbrndis.obj
 0001:00004bd0       ??_C@_1EA@JLPAKBOH@?$AAu?$AAs?$AAb?$AAd?$AAb?$AAg?$AA?3?$AA?9?$AAU?$AAs?$AAb?$AAR?$AAn?$AAd?$AAi?$AAs?$AA_?$AAS?$AAe?$AAn?$AAd?$AAM?$AAe?$AAs?$AAs?$AAa?$AAg?$AAe?$AA?4?$AA?$AN?$AA?6?$AA?$AA@ 10005bd0     oal_usbdbgrndismdd:usbrndis.obj
 0001:00004c10       ??_C@_1JA@NHNJFNAC@?$AAU?$AAs?$AAb?$AAD?$AAb?$AAg?$AA?3?$AAQ?$AAu?$AAe?$AAu?$AAe?$AAi?$AAn?$AAg?$AA?5?$AAR?$AAN?$AAD?$AAI?$AAS?$AA?5?$AAM?$AAs?$AAg?$AA?5?$AA?$FL?$AA?$CF?$AAd?$AA?5?$AAb?$AAy@ 10005c10     oal_usbdbgrndismdd:usbrndis.obj
 0001:00004ca0       ??_C@_1EA@DFLEPJED@?$AAu?$AAs?$AAb?$AAd?$AAb?$AAg?$AA?3?$AA?$CL?$AAU?$AAs?$AAb?$AAR?$AAn?$AAd?$AAi?$AAs?$AA_?$AAS?$AAe?$AAn?$AAd?$AAM?$AAe?$AAs?$AAs?$AAa?$AAg?$AAe?$AA?4?$AA?$AN?$AA?6?$AA?$AA@ 10005ca0     oal_usbdbgrndismdd:usbrndis.obj
 0001:00004ee0       ??_C@_1EO@KLJGPEDP@?$AAu?$AAs?$AAb?$AAp?$AAd?$AAd?$AA?3?$AAD?$AAe?$AAv?$AAi?$AAc?$AAe?$AA?5?$AAe?$AAn?$AAu?$AAm?$AAe?$AAr?$AAa?$AAt?$AAi?$AAo?$AAn?$AA?5?$AAc?$AAo?$AAm?$AAp?$AAl?$AAe@ 10005ee0     s3c6410_usbdbgpdd:usbdbgpdd.obj
 0001:00004f30       ??_C@_1DG@FAMNIPMC@?$AAu?$AAs?$AAb?$AAp?$AAd?$AAd?$AA?3?$AA?5?$AAR?$AAe?$AAs?$AAu?$AAm?$AAe?$AA?5?$AAd?$AAe?$AAt?$AAe?$AAc?$AAt?$AAe?$AAd?$AA?4?$AA?$AN?$AA?6?$AA?$AA@ 10005f30     s3c6410_usbdbgpdd:usbdbgpdd.obj
 0001:00004f68       ??_C@_1DI@HBKLFACO@?$AAu?$AAs?$AAb?$AAp?$AAd?$AAd?$AA?3?$AA?5?$AAS?$AAu?$AAs?$AAp?$AAe?$AAn?$AAd?$AA?5?$AAd?$AAe?$AAt?$AAe?$AAc?$AAt?$AAe?$AAd?$AA?4?$AA?$AN?$AA?6?$AA?$AA@ 10005f68     s3c6410_usbdbgpdd:usbdbgpdd.obj
 0001:00004fa0       ??_C@_1DE@CNDLGJKE@?$AAu?$AAs?$AAb?$AAp?$AAd?$AAd?$AA?3?$AA?5?$AAR?$AAe?$AAs?$AAe?$AAt?$AA?5?$AAd?$AAe?$AAt?$AAe?$AAc?$AAt?$AAe?$AAd?$AA?4?$AA?$AN?$AA?6?$AA?$AA@ 10005fa0     s3c6410_usbdbgpdd:usbdbgpdd.obj
 0001:00004fd8       ??_C@_1EC@NMKKDMIO@?$AAu?$AAs?$AAb?$AAp?$AAd?$AAd?$AA?3?$AAD?$AAe?$AAv?$AAi?$AAc?$AAe?$AA?5?$AAd?$AAe?$AAt?$AAa?$AAc?$AAh?$AA?5?$AAd?$AAe?$AAt?$AAe?$AAc?$AAt?$AAe?$AAd?$AA?4?$AA?$AN?$AA?6@ 10005fd8     s3c6410_usbdbgpdd:usbdbgpdd.obj
 0001:00005020       ??_C@_1EE@MFJIJHNG@?$AAu?$AAs?$AAb?$AAp?$AAd?$AAd?$AA?3?$AA?5?$AAD?$AAe?$AAv?$AAi?$AAc?$AAe?$AA?5?$AAa?$AAt?$AAt?$AAa?$AAc?$AAh?$AA?5?$AAd?$AAe?$AAt?$AAe?$AAc?$AAt?$AAe?$AAd?$AA?4?$AA?$AN@ 10006020     s3c6410_usbdbgpdd:usbdbgpdd.obj
 0001:00005068       ??_C@_1LI@EDOBPDPH@?$AAU?$AAs?$AAb?$AAD?$AAb?$AAg?$AAP?$AAd?$AAd?$AA_?$AAR?$AAe?$AAc?$AAv?$AAD?$AAa?$AAt?$AAa?$AA?3?$AA?5?$AAW?$AAa?$AAi?$AAt?$AAl?$AAo?$AAo?$AAp?$AA?3?$AA?5?$AAd?$AAw@ 10006068     s3c6410_usbdbgpdd:usbdbgpdd.obj
 0001:00005120       ??_C@_1LE@KJHMKMHM@?$AAU?$AAs?$AAb?$AAD?$AAb?$AAg?$AAP?$AAd?$AAd?$AA_?$AAR?$AAe?$AAc?$AAv?$AAD?$AAa?$AAt?$AAa?$AA?3?$AA?5?$AAW?$AAa?$AAi?$AAt?$AAl?$AAo?$AAo?$AAp?$AA?3?$AA?5?$AAd?$AAw@ 10006120     s3c6410_usbdbgpdd:usbdbgpdd.obj
 0001:000051d4       ??_C@_1DM@IJOLNNF@?$AA?$AN?$AA?6?$AAu?$AAs?$AAb?$AAp?$AAd?$AAd?$AA?3?$AA?5?$AAP?$AAo?$AAw?$AAe?$AAr?$AAi?$AAn?$AAg?$AA?5?$AAo?$AAf?$AAf?$AA?5?$AAU?$AAS?$AAB?$AA?4?$AA?$AN?$AA?6?$AA?$AA@ 100061d4     s3c6410_usbdbgpdd:usbdbgpdd.obj
 0001:00005210       ??_C@_1DE@JFCHEKCJ@?$AAu?$AAs?$AAb?$AAp?$AAd?$AAd?$AA?3?$AA?5?$AAP?$AAo?$AAw?$AAe?$AAr?$AAO?$AAn?$AA?5?$AAs?$AAu?$AAc?$AAc?$AAe?$AAs?$AAs?$AA?$AN?$AA?6?$AA?$AA@ 10006210     s3c6410_usbdbgpdd:usbdbgpdd.obj
 0001:00005248       ??_C@_1GO@ELGKFPNI@?$AAu?$AAs?$AAb?$AAp?$AAd?$AAd?$AA?3?$AA?5?$AAP?$AAo?$AAw?$AAe?$AAr?$AAO?$AAn?$AA?5?$AA?9?$AA?5?$AAf?$AAa?$AAi?$AAl?$AAe?$AAd?$AA?5?$AAt?$AAo?$AA?5?$AAr?$AAe?$AA?9?$AAi@ 10006248     s3c6410_usbdbgpdd:usbdbgpdd.obj
 0001:000052b8       ??_C@_1DK@NMGOGILD@?$AAu?$AAs?$AAb?$AAp?$AAd?$AAd?$AA?3?$AA?5?$AA?9?$AAU?$AAs?$AAb?$AAD?$AAb?$AAg?$AAP?$AAd?$AAd?$AA_?$AAC?$AAo?$AAn?$AAn?$AAe?$AAc?$AAt?$AA?$AN?$AA?6?$AA?$AA@ 100062b8     s3c6410_usbdbgpdd:usbdbgpdd.obj
 0001:000052f4       ??_C@_1DK@KMBJHOFF@?$AAu?$AAs?$AAb?$AAp?$AAd?$AAd?$AA?3?$AA?5?$AA?$CL?$AAU?$AAs?$AAb?$AAD?$AAb?$AAg?$AAP?$AAd?$AAd?$AA_?$AAC?$AAo?$AAn?$AAn?$AAe?$AAc?$AAt?$AA?$AN?$AA?6?$AA?$AA@ 100062f4     s3c6410_usbdbgpdd:usbdbgpdd.obj
 0001:00005330       ??_C@_1EA@LIDLJNNE@?$AAu?$AAs?$AAb?$AAp?$AAd?$AAd?$AA?3?$AA?5?$AA?9?$AAU?$AAs?$AAb?$AAD?$AAb?$AAg?$AAP?$AAd?$AAd?$AA_?$AAD?$AAi?$AAs?$AAc?$AAo?$AAn?$AAn?$AAe?$AAc?$AAt?$AA?$AN?$AA?6?$AA?$AA@ 10006330     s3c6410_usbdbgpdd:usbdbgpdd.obj
 0001:00005370       ??_C@_1EA@DFJPPHBM@?$AAu?$AAs?$AAb?$AAp?$AAd?$AAd?$AA?3?$AA?5?$AA?$CL?$AAU?$AAs?$AAb?$AAD?$AAb?$AAg?$AAP?$AAd?$AAd?$AA_?$AAD?$AAi?$AAs?$AAc?$AAo?$AAn?$AAn?$AAe?$AAc?$AAt?$AA?$AN?$AA?6?$AA?$AA@ 10006370     s3c6410_usbdbgpdd:usbdbgpdd.obj
 0001:000053b0       ??_C@_1MI@EGHHFOBG@?$AAU?$AAs?$AAb?$AAD?$AAb?$AAg?$AAP?$AAd?$AAd?$AA_?$AAE?$AAv?$AAe?$AAn?$AAt?$AAH?$AAa?$AAn?$AAd?$AAl?$AAe?$AAr?$AA?3?$AA?5?$AAR?$AAX?$AA_?$AAF?$AAI?$AAF?$AAO?$AA_@ 100063b0     s3c6410_usbdbgpdd:usbdbgpdd.obj
 0001:00005478       ??_C@_1EO@LOJPGPGO@?$AAu?$AAs?$AAb?$AAp?$AAd?$AAd?$AA?3?$AAe?$AAp?$AA?$CF?$AAd?$AA?5?$AAr?$AAe?$AAc?$AAv?$AA?5?$AA?$CF?$AAd?$AA?5?$AAb?$AAy?$AAt?$AAe?$AAs?$AA?5?$AAf?$AAl?$AAa?$AAg?$AAs?$AA?$DN@ 10006478     s3c6410_usbdbgpdd:usbdbgpdd.obj
 0001:000054c8       ??_C@_1FM@NLJJDJGN@?$AAu?$AAs?$AAb?$AAp?$AAd?$AAd?$AA?3?$AAE?$AAR?$AAR?$AAO?$AAR?$AA?3?$AA?5?$AAr?$AAx?$AA?5?$AA?$CF?$AAd?$AA?5?$AAb?$AAy?$AAt?$AAe?$AAs?$AA?5?$AA?$DO?$AA?5?$AAb?$AAu?$AAf?$AAl@ 100064c8     s3c6410_usbdbgpdd:usbdbgpdd.obj
 0001:00005528       ??_C@_1HO@IECLJCJF@?$AAu?$AAs?$AAb?$AAp?$AAd?$AAd?$AA?3?$AAU?$AAs?$AAb?$AAD?$AAb?$AAg?$AAP?$AAd?$AAd?$AA_?$AAR?$AAe?$AAc?$AAv?$AAD?$AAa?$AAt?$AAa?$AA?3?$AA?5?$AAc?$AAo?$AAu?$AAn?$AAt@ 10006528     s3c6410_usbdbgpdd:usbdbgpdd.obj
 0001:000055a8       ??_C@_1FO@KGCMLMFL@?$AAu?$AAs?$AAb?$AAp?$AAd?$AAd?$AA?3?$AAU?$AAs?$AAb?$AAD?$AAb?$AAg?$AAP?$AAd?$AAd?$AA_?$AAR?$AAe?$AAc?$AAv?$AAD?$AAa?$AAt?$AAa?$AA?3?$AA?5?$AA?$CB?$AAO?$AAU?$AAT?$AA_@ 100065a8     s3c6410_usbdbgpdd:usbdbgpdd.obj
 0001:00005608       ??_C@_1FI@PCJBCIDK@?$AAu?$AAs?$AAb?$AAp?$AAd?$AAd?$AA?5?$AA?$CI?$AA?9?$AA?9?$AA?$CJ?$AA?3?$AAe?$AAp?$AA?$CF?$AAd?$AA?5?$AAs?$AAe?$AAn?$AAd?$AA?5?$AA?$CF?$AAd?$AA?5?$AAb?$AAy?$AAt?$AAe?$AAs?$AA?5?$AAf@ 10006608     s3c6410_usbdbgpdd:usbdbgpdd.obj
 0001:00005660       ??_C@_1HC@HMEPOAEE@?$AAu?$AAs?$AAb?$AAp?$AAd?$AAd?$AA?5?$AA?$CI?$AA?$CL?$AA?$CL?$AA?$CJ?$AA?3?$AAe?$AAp?$AA?$CF?$AAd?$AA?5?$AAT?$AAo?$AA?5?$AAs?$AAe?$AAn?$AAd?$AA?5?$AA?$CF?$AAd?$AA?5?$AAb?$AAy?$AAt?$AAe@ 10006660     s3c6410_usbdbgpdd:usbdbgpdd.obj
 0001:000056d4       ??_C@_1CK@INPLDAMD@?$AA?9?$AAU?$AAs?$AAb?$AAD?$AAb?$AAg?$AAP?$AAd?$AAd?$AA_?$AAS?$AAe?$AAn?$AAd?$AAC?$AAm?$AAd?$AA?$AN?$AA?6?$AA?$AA@ 100066d4     s3c6410_usbdbgpdd:usbdbgpdd.obj
 0001:00005700       ??_C@_1CK@PNIMCGCF@?$AA?$CL?$AAU?$AAs?$AAb?$AAD?$AAb?$AAg?$AAP?$AAd?$AAd?$AA_?$AAS?$AAe?$AAn?$AAd?$AAC?$AAm?$AAd?$AA?$AN?$AA?6?$AA?$AA@ 10006700     s3c6410_usbdbgpdd:usbdbgpdd.obj
 0001:0000572c       ??_C@_1DE@NKABPKIP@?$AAu?$AAs?$AAb?$AAp?$AAd?$AAd?$AA?3?$AA?5?$AA?9?$AAU?$AAs?$AAb?$AAD?$AAb?$AAg?$AAP?$AAd?$AAd?$AA_?$AAI?$AAn?$AAi?$AAt?$AA?$AN?$AA?6?$AA?$AA@ 1000672c     s3c6410_usbdbgpdd:usbdbgpdd.obj
 0001:00005760       ??_C@_1DE@BDMBANHD@?$AAu?$AAs?$AAb?$AAp?$AAd?$AAd?$AA?3?$AA?5?$AA?$CL?$AAU?$AAs?$AAb?$AAD?$AAb?$AAg?$AAP?$AAd?$AAd?$AA_?$AAI?$AAn?$AAi?$AAt?$AA?$AN?$AA?6?$AA?$AA@ 10006760     s3c6410_usbdbgpdd:usbdbgpdd.obj
 0001:00005828       ??_C@_1FA@EFAOIIFK@?$AAU?$AAs?$AAb?$AAD?$AAb?$AAg?$AA?3?$AA?5?$AAS?$AAe?$AAt?$AAt?$AAi?$AAn?$AAg?$AA?5?$AAd?$AAe?$AAv?$AAi?$AAc?$AAe?$AA?5?$AAa?$AAd?$AAd?$AAr?$AAe?$AAs?$AAs?$AA?5?$AAt@ 10006828     s3c6410_usbdbgpdd:otgdev.obj
 0001:00005878       ??_C@_1HG@GCHENHH@?$AAu?$AAs?$AAb?$AAp?$AAd?$AAd?$AA?3?$AA?5?$AAI?$AAn?$AAi?$AAt?$AAE?$AAn?$AAd?$AAP?$AAo?$AAi?$AAn?$AAt?$AAs?$AA?3?$AA?5?$AAs?$AAe?$AAt?$AAt?$AAi?$AAn?$AAg?$AA?5?$AAE@ 10006878     s3c6410_usbdbgpdd:otgdev.obj
 0001:000058f0       ??_C@_1HI@FNMHPIDI@?$AAu?$AAs?$AAb?$AAp?$AAd?$AAd?$AA?3?$AA?5?$AAI?$AAn?$AAi?$AAt?$AAE?$AAn?$AAd?$AAP?$AAo?$AAi?$AAn?$AAt?$AAs?$AA?3?$AA?5?$AAs?$AAe?$AAt?$AAt?$AAi?$AAn?$AAg?$AA?5?$AAE@ 100068f0     s3c6410_usbdbgpdd:otgdev.obj
 0001:00005968       ??_C@_1HA@HMOMLLJC@?$AAu?$AAs?$AAb?$AAp?$AAd?$AAd?$AA?3?$AA?5?$AAE?$AAn?$AAu?$AAm?$AAe?$AAr?$AAa?$AAt?$AAe?$AAd?$AA?5?$AAS?$AAp?$AAe?$AAe?$AAd?$AA?5?$AAn?$AAo?$AAt?$AA?5?$AAh?$AAi?$AAg@ 10006968     s3c6410_usbdbgpdd:otgdev.obj
 0001:000059d8       ??_C@_1EG@GJKMCP@?$AAu?$AAs?$AAb?$AAp?$AAd?$AAd?$AA?3?$AA?5?$AAE?$AAn?$AAu?$AAm?$AAe?$AAr?$AAa?$AAt?$AAe?$AAd?$AA?5?$AAa?$AAt?$AA?5?$AAF?$AAu?$AAl?$AAl?$AA?5?$AAS?$AAp?$AAe?$AAe?$AAd@ 100069d8     s3c6410_usbdbgpdd:otgdev.obj
 0001:00005a20       ??_C@_1EG@GACIOBOH@?$AAu?$AAs?$AAb?$AAp?$AAd?$AAd?$AA?3?$AA?5?$AAE?$AAn?$AAu?$AAm?$AAe?$AAr?$AAa?$AAt?$AAe?$AAd?$AA?5?$AAa?$AAt?$AA?5?$AAH?$AAi?$AAg?$AAh?$AA?5?$AAS?$AAp?$AAe?$AAe?$AAd@ 10006a20     s3c6410_usbdbgpdd:otgdev.obj
 0001:00005a68       ??_C@_1GM@FIPDOEJA@?$AAu?$AAs?$AAb?$AAp?$AAd?$AAd?$AA?3?$AA?5?$AAE?$AAr?$AAr?$AAo?$AAr?$AA?$CB?$AA?5?$AAO?$AAT?$AAG?$AAD?$AAe?$AAv?$AAi?$AAc?$AAe?$AA_?$AAI?$AAn?$AAi?$AAt?$AA?3?$AA?5?$AAC@ 10006a68     s3c6410_usbdbgpdd:otgdev.obj
 0001:00005ad8       ??_C@_1HA@FKGGAMGL@?$AAu?$AAs?$AAb?$AAp?$AAd?$AAd?$AA?3?$AA?5?$AAI?$AAn?$AAi?$AAt?$AA?3?$AA?5?$AAR?$AAu?$AAn?$AAn?$AAi?$AAn?$AAg?$AA?5?$AAa?$AAs?$AA?5?$AAH?$AAi?$AAg?$AAh?$AA?5?$AAS?$AAp@ 10006ad8     s3c6410_usbdbgpdd:otgdev.obj
 0001:00005b48       ??_C@_1DE@IJJEAKCK@?$AAu?$AAs?$AAb?$AAp?$AAd?$AAd?$AA?3?$AA?5?$AA?$CL?$AAO?$AAT?$AAG?$AAD?$AAe?$AAv?$AAi?$AAc?$AAe?$AA_?$AAI?$AAn?$AAi?$AAt?$AA?$AN?$AA?6?$AA?$AA@ 10006b48     s3c6410_usbdbgpdd:otgdev.obj
 0001:00005b80       ??_C@_1EO@PLKMAJKO@?$AAu?$AAs?$AAb?$AAp?$AAd?$AAd?$AA?3?$AA?5?$AAI?$AAn?$AAi?$AAt?$AAE?$AAn?$AAd?$AAP?$AAt?$AAs?$AA?5?$AAE?$AAp?$AAN?$AAu?$AAm?$AA?5?$AA?$CI?$AA?$CF?$AAd?$AA?$CJ?$AA?5?$AA?$DO?$AA?5@ 10006b80     s3c6410_usbdbgpdd:otgdev.obj
 0001:00005c60       ??_C@_0EH@OHHLEIM@VBridge?3?5Error?$CB?5ProduceBufferDon@ 10006c60     vbridge:vbridge.obj
 0001:00005ca8       ??_C@_0ED@LALCLDGC@VBridge?3?5Error?$CB?5ConsumeBuffer?$CI?$CJ?5@ 10006ca8     vbridge:vbridge.obj
 0001:00005cf0       ??_C@_0EH@PDMAJMNN@VBridge?3?5Error?$CB?5ConsumeBufferDon@ 10006cf0     vbridge:vbridge.obj
 0001:00005d38       ??_C@_0GA@BIIJJCHI@VBridge?3?5Error?$CB?5ConsumeBufferDon@ 10006d38     vbridge:vbridge.obj
 0001:00005d98       ??_C@_08BCKMEILL@19?328?311?$AA@ 10006d98     vbridge:vbridge.obj
 0001:00005da4       ??_C@_0M@CJCABMIH@Sep?5?56?52006?$AA@ 10006da4     vbridge:vbridge.obj
 0001:00005db0       ??_C@_0CE@JNBGKBJC@VBridge?3?3?5built?5on?5?$FL?$CFs?$FN?5time?5?$FL?$CFs@ 10006db0     vbridge:vbridge.obj
 0001:00005dd4       ??_C@_0DF@FKGFCLPJ@VBridgeInit?$CI?$CJ?4?4?4TX?5?$DN?5?$FL?$CFd?$FN?5bytes?5@ 10006dd4     vbridge:vbridge.obj
 0001:00005e0c       ??_C@_0BO@IKIKAINA@Tx?5buffer?5?$FL0x?$CFx?$FN?5to?5?$FL0x?$CFx?$FN?4?$AN?6?$AA@ 10006e0c     vbridge:vbridge.obj
 0001:00005e2c       ??_C@_0BO@DMIECOA@Rx?5buffer?5?$FL0x?$CFx?$FN?5to?5?$FL0x?$CFx?$FN?4?$AN?6?$AA@ 10006e2c     vbridge:vbridge.obj
 0001:00005e4c       ??_C@_0CO@ILLJABOE@VBridgeKGetOneTxBuffer?$CI?$CJ?5Err?$CB?5?$FL0@ 10006e4c     vbridge:vbridge.obj
 0001:00005e7c       ??_C@_0DE@LOPBMMHM@VBridgeKGetOneTxBufferComplete?$CI?$CJ@ 10006e7c     vbridge:vbridge.obj
 0001:00005eb0       ??_C@_0DJ@LKNKOIHJ@VBridgeKIndicateOneRxBuffer?$CI?$CJ?5Er@ 10006eb0     vbridge:vbridge.obj
 0001:00005eec       ??_C@_0DI@HEJDFJBF@?$CK?$CK?5WARNING?$CB?$CB?$CB?5?$CK?$CK?5Device?5MAC?5addr@ 10006eec     vbridge:vbridge.obj
 0001:00005f24       ??_C@_0CM@PJABNFGI@VBridge?3?3?5NK?5add?5MAC?3?5?$FL?$CFx?9?$CFx?9?$CFx?9@ 10006f24     vbridge:vbridge.obj
 0001:00005f50       ??_C@_0DJ@JPHIEPAD@VBridgeKSetLocalMacAddress?$CI?$CJ?5Err@ 10006f50     vbridge:vbridge.obj
 0001:00005f8c       ??_C@_0DA@BNPLKEKM@VBridgeUGetOneTxPacket?$CI?$CJ?5Err?$CB?$CB?5?$FL@ 10006f8c     vbridge:vbridge.obj
 0001:00005fbc       ??_C@_0DI@MDDGKNHB@VBridgeUGetOneTxPacketComplete?$CI?$CJ@ 10006fbc     vbridge:vbridge.obj
 0001:00005ff4       ??_C@_0DA@MGPGECBI@VBridgeUGetOneRxPacket?$CI?$CJ?5Err?$CB?$CB?5?$FL@ 10006ff4     vbridge:vbridge.obj
 0001:00006024       ??_C@_0DA@KIINIKAM@VBridgeUGetOneRxPacketComplete?$CI?$CJ@ 10007024     vbridge:vbridge.obj
 0001:00006054       ??_C@_0CD@KPODIJAL@VBridge?3?3?5RESET_BUFFER?5received?4@ 10007054     vbridge:vbridge.obj
 0001:00006078       ??_C@_0CI@BDPMFOMO@VBridge?3?3?5VB_INITIALIZED?5returns@ 10007078     vbridge:vbridge.obj
 0001:000060a0       ??_C@_0DB@IMBKLANK@VBridgeUGetEDBGMac?$CI?$CJ?0?5ERR?$CB?5NULL?5@ 100070a0     vbridge:vbridge.obj
 0001:000060d4       ??_C@_0DB@BMKDFNPB@VBridge?3?3?5Current?5VMini?5packet?5f@ 100070d4     vbridge:vbridge.obj
 0001:00006108       ??_C@_0DG@MKNLPBLF@VBridgeUCurrentPacketFilter?$CI?$CJ?0?5E@ 10007108     vbridge:vbridge.obj
 0001:000061f4       OEMKitlGetSecs             100071f4 f   kitl.obj
 0001:00006270       OALGetTickCount            10007270 f   kitl.obj
 0001:0000628c       OALKitlInitRegistry        1000728c f   kitl.obj
 0001:00006450       BSPKitlEthPowerOn          10007450 f   kitl.obj
 0001:00006510       BSPKitlEthPowerOff         10007510 f   kitl.obj
 0001:00006540       OEMKitlStartup             10007540 f   kitl.obj
 0001:000066a0       OEMKitlIoctl               100076a0 f   kitl.obj
 0001:000066ec       IsDesktopDbgrExist         100076ec f   kitlcore:ethdbg.obj
 0001:000067a8       ChkDfltSvc                 100077a8 f   kitlcore:ethdbg.obj
 0001:000069f8       KITLDeregisterClient       100079f8 f   kitlcore:ethdbg.obj
 0001:00006cb0       KITLWriteDebugString       10007cb0 f   kitlcore:ethdbg.obj
 0001:000071e8       KITLInitializeInterrupt    100081e8 f   kitlcore:ethdbg.obj
 0001:00007360       KITLRegisterDfltClient     10008360 f   kitlcore:ethdbg.obj
 0001:00007674       KitlInit                   10008674 f   kitlcore:ethdbg.obj
 0001:000076d0       KITLRegisterClient         100086d0 f   kitlcore:ethdbg.obj
 0001:000078f4       ExtKITLIoctl               100088f4 f   kitlcore:ethdbg.obj
 0001:00007c90       KITLIoctl                  10008c90 f   kitlcore:ethdbg.obj
 0001:00007f0c       KitlDllMain                10008f0c f   kitlcore:ethdbg.obj
 0001:00008238       KITLOutputDebugString      10009238 f   kitlcore:debug.obj
 0001:000082d4       InitTimerList              100092d4 f   kitlcore:timer.obj
 0001:00008310       FreeTimerEntry             10009310 f   kitlcore:timer.obj
 0001:00008368       TimerCallback              10009368 f   kitlcore:timer.obj
 0001:00008538       TimerStart                 10009538 f   kitlcore:timer.obj
 0001:0000861c       TimerStop                  1000961c f   kitlcore:timer.obj
 0001:00008714       CancelTimersForClient      10009714 f   kitlcore:timer.obj
 0001:00008764       KitlSetTimerCallback       10009764 f   kitlcore:timer.obj
 0001:00008810       TimerThread                10009810 f   kitlcore:timer.obj
 0001:000089a8       DoDebugBreak               100099a8 f   kitlcore:edbgprot.obj
 0001:000089b0       ResetClientState           100099b0 f   kitlcore:edbgprot.obj
 0001:00008a6c       KitlSendRawData            10009a6c f   kitlcore:edbgprot.obj
 0001:00008b34       KitlSendFrame              10009b34 f   kitlcore:edbgprot.obj
 0001:00008ba4       SendConfig                 10009ba4 f   kitlcore:edbgprot.obj
 0001:00008ce4       RetransmitFrame            10009ce4 f   kitlcore:edbgprot.obj
 0001:00009748       HandleRecvInterrupt        1000a748 f   kitlcore:edbgprot.obj
 0001:000098c8       KITLPollResponse           1000a8c8 f   kitlcore:edbgprot.obj
 0001:00009a28       ExchangeConfig             1000aa28 f   kitlcore:edbgprot.obj
 0001:00009b2c       KITLSend                   1000ab2c f   kitlcore:edbgprot.obj
 0001:0000a148       KITLRecv                   1000b148 f   kitlcore:edbgprot.obj
 0001:0000a4fc       NKDbgPrintfW               1000b4fc f   nkstub:nkstub.obj
 0001:0000a530       NKwvsprintfW               1000b530 f   nkstub:nkstub.obj
 0001:0000a554       NKSetLastError             1000b554 f   nkstub:nkstub.obj
 0001:0000a578       NKGetLastError             1000b578 f   nkstub:nkstub.obj
 0001:0000a59c       EnterCriticalSection       1000b59c f   nkstub:nkstub.obj
 0001:0000a5c0       LeaveCriticalSection       1000b5c0 f   nkstub:nkstub.obj
 0001:0000a5e4       InitializeCriticalSection  1000b5e4 f   nkstub:nkstub.obj
 0001:0000a608       DeleteCriticalSection      1000b608 f   nkstub:nkstub.obj
 0001:0000a62c       INTERRUPTS_OFF             1000b62c f   nkstub:nkstub.obj
 0001:0000a650       NKSetInterruptEvent        1000b650 f   nkstub:nkstub.obj
 0001:0000a674       NKSleep                    1000b674 f   nkstub:nkstub.obj
 0001:0000a698       NKRegCloseKey              1000b698 f   nkstub:nkstub.obj
 0001:0000a6bc       NKRegCreateKeyExW          1000b6bc f   nkstub:nkstub.obj
 0001:0000a710       NKRegSetValueExW           1000b710 f   nkstub:nkstub.obj
 0001:0000a74c       NKForceCleanBoot           1000b74c f   nkstub:nkstub.obj
 0001:0000a770       NKUnicodeToAscii           1000b770 f   nkstub:nkstub.obj
 0001:0000a794       NKPhysToVirt               1000b794 f   nkstub:nkstub.obj
 0001:0000a7b8       __report_gsfailure         1000b7b8 f   nkstub:nkstub.obj
 0001:0000a7dc       OEMWriteDebugByte          1000b7dc f   oemstub:oemstub.obj
 0001:0000a800       OEMWriteDebugString        1000b800 f   oemstub:oemstub.obj
 0001:0000a824       OEMGetRealTime             1000b824 f   oemstub:oemstub.obj
 0001:0000a848       OEMGetTickCount            1000b848 f   oemstub:oemstub.obj
 0001:0000a86c       OEMInterruptEnable         1000b86c f   oemstub:oemstub.obj
 0001:0000a890       OEMIoControl               1000b890 f   oemstub:oemstub.obj
 0001:0000a8e8       OALKitlGetDevLoc           1000b8e8 f   oal_kitl:kitl.obj
 0001:0000a920       OALKitlGetFlags            1000b920 f   oal_kitl:kitl.obj
 0001:0000a93c       OALKitlInit                1000b93c f   oal_kitl:kitl.obj
 0001:0000abc4       OALKitlPowerOff            1000bbc4 f   oal_kitl:kitl.obj
 0001:0000ac5c       OALKitlPowerOn             1000bc5c f   oal_kitl:kitl.obj
 0001:0000ace8       OEMKitlInit                1000bce8 f   oal_kitl:kitl.obj
 0001:0000b8bc       DecodeIP                   1000c8bc f   oal_kitl:kitleth.obj
 0001:0000bfb8       OALIoCtlVBridge            1000cfb8 f   oal_kitl:kitleth.obj
 0001:0000c404       OALKitlEthInit             1000d404 f   oal_kitl:kitleth.obj
 0001:0000c820       OALKitlFindDevice          1000d820 f   oal_kitl:device.obj
 0001:0000c9b8       OALKitlIPtoString          1000d9b8 f   oal_kitl:format.obj
 0001:0000cf48       OALKitlSerialInit          1000df48 f   oal_kitl:kitlserial.obj
 0001:0000d214       OALKitlCreateName          1000e214 f   oal_kitl:name.obj
 0001:0000d34c       CS8900AInit                1000e34c f   oal_ethdrv_dm9000a:cs8900a.obj
 0001:0000d550       CS8900ASendFrame           1000e550 f   oal_ethdrv_dm9000a:cs8900a.obj
 0001:0000d638       CS8900AGetFrame            1000e638 f   oal_ethdrv_dm9000a:cs8900a.obj
 0001:0000d730       CS8900AEnableInts          1000e730 f   oal_ethdrv_dm9000a:cs8900a.obj
 0001:0000d79c       CS8900ADisableInts         1000e79c f   oal_ethdrv_dm9000a:cs8900a.obj
 0001:0000d810       CS8900ACurrentPacketFilter 1000e810 f   oal_ethdrv_dm9000a:cs8900a.obj
 0001:0000d928       CS8900AMulticastList       1000e928 f   oal_ethdrv_dm9000a:cs8900a.obj
 0001:0000daa8       dm9000_hash_table          1000eaa8 f   oal_ethdrv_dm9000a:dm9000dbg.obj
 0001:0000dbb8       DM9000AInit                1000ebb8 f   oal_ethdrv_dm9000a:dm9000dbg.obj
 0001:0000dd80       OALPAtoVA                  1000ed80 f   oal_memory_arm:memory.obj
 0001:0000de04       OALArgsQuery               1000ee04 f   s3c6410_args:args.obj
 0001:0000e004       Serial_Init                1000f004 f   oal_usbdbgsermdd:serifc.obj
 0001:0000e0bc       Serial_EnableInts          1000f0bc f   oal_usbdbgsermdd:serifc.obj
 0001:0000e0c0       Serial_DisableInts         1000f0c0 f   oal_usbdbgsermdd:serifc.obj
 0001:0000e0c4       Serial_Send                1000f0c4 f   oal_usbdbgsermdd:serifc.obj
 0001:0000e170       Serial_Recv                1000f170 f   oal_usbdbgsermdd:serifc.obj
 0001:0000e298       Serial_PowerOff            1000f298 f   oal_usbdbgsermdd:serifc.obj
 0001:0000e2ac       Serial_PowerOn             1000f2ac f   oal_usbdbgsermdd:serifc.obj
 0001:0000e2c4       Serial_DeInit              1000f2c4 f   oal_usbdbgsermdd:serifc.obj
 0001:0000ed44       UsbSerial_Deinit           1000fd44 f   oal_usbdbgsermdd:usbser.obj
 0001:0000eda0       UsbSerial_EventHandler     1000fda0 f   oal_usbdbgsermdd:usbser.obj
 0001:0000ef88       UsbSerial_RecvData         1000ff88 f   oal_usbdbgsermdd:usbser.obj
 0001:0000f080       UsbSerial_SetPower         10010080 f   oal_usbdbgsermdd:usbser.obj
 0001:0000f0b0       UsbSerial_Init             100100b0 f   oal_usbdbgsermdd:usbser.obj
 0001:0000f1e0       UsbSerial_IsConnected      100101e0 f   oal_usbdbgsermdd:usbser.obj
 0001:0000f300       UsbSerial_SendData         10010300 f   oal_usbdbgsermdd:usbser.obj
 0001:0000f9c8       Rndis_Init                 100109c8 f   oal_usbdbgrndismdd:rndismin.obj
 0001:0000fb3c       Rndis_EnableInts           10010b3c f   oal_usbdbgrndismdd:rndismin.obj
 0001:0000fb40       Rndis_DisableInts          10010b40 f   oal_usbdbgrndismdd:rndismin.obj
 0001:0000fb44       Rndis_CurrentPktFilter     10010b44 f   oal_usbdbgrndismdd:rndismin.obj
 0001:0000fb48       Rndis_SendFrame            10010b48 f   oal_usbdbgrndismdd:rndismin.obj
 0001:0000fc14       Rndis_RecvFrame            10010c14 f   oal_usbdbgrndismdd:rndismin.obj
 0001:0000fcf4       Rndis_PowerOff             10010cf4 f   oal_usbdbgrndismdd:rndismin.obj
 0001:0000fd08       Rndis_PowerOn              10010d08 f   oal_usbdbgrndismdd:rndismin.obj
 0001:0000fd1c       RndisPdd_RecvdMsg          10010d1c f   oal_usbdbgrndismdd:rndismin.obj
 0001:00010144       RndisPdd_ProcessRecvdData  10011144 f   oal_usbdbgrndismdd:rndismin.obj
 0001:000101b4       RndisPdd_SetRndisState     100111b4 f   oal_usbdbgrndismdd:rndismin.obj
 0001:00010d28       UsbRndis_EventHandler      10011d28 f   oal_usbdbgrndismdd:usbrndis.obj
 0001:00010f5c       UsbRndis_RecvData          10011f5c f   oal_usbdbgrndismdd:usbrndis.obj
 0001:00011028       UsbRndis_RndisMsgSent      10012028 f   oal_usbdbgrndismdd:usbrndis.obj
 0001:00011038       UsbRndis_SetPower          10012038 f   oal_usbdbgrndismdd:usbrndis.obj
 0001:00011070       UsbRndis_Init              10012070 f   oal_usbdbgrndismdd:usbrndis.obj
 0001:00011350       UsbRndis_SendMessage       10012350 f   oal_usbdbgrndismdd:usbrndis.obj
 0001:000113f0       UsbRndis_SendData          100123f0 f   oal_usbdbgrndismdd:usbrndis.obj
 0001:00011678       UsbDbgPdd_DeInit           10012678 f   s3c6410_usbdbgpdd:usbdbgpdd.obj
 0001:0001168c       UsbDbgPdd_Connect          1001268c f   s3c6410_usbdbgpdd:usbdbgpdd.obj
 0001:000116d0       UsbDbgPdd_Disconnect       100126d0 f   s3c6410_usbdbgpdd:usbdbgpdd.obj
 0001:00011714       UsbDbgPdd_Ioctl            10012714 f   s3c6410_usbdbgpdd:usbdbgpdd.obj
 0001:00011790       UsbDbgPdd_EventHandler     10012790 f   s3c6410_usbdbgpdd:usbdbgpdd.obj
 0001:000119a0       UsbDbgPdd_RecvData         100129a0 f   s3c6410_usbdbgpdd:usbdbgpdd.obj
 0001:00011bb4       UsbDbgPdd_SendData         10012bb4 f   s3c6410_usbdbgpdd:usbdbgpdd.obj
 0001:00011d24       UsbDbgPdd_SendCmd          10012d24 f   s3c6410_usbdbgpdd:usbdbgpdd.obj
 0001:00011df8       UsbDbgPdd_SetPower         10012df8 f   s3c6410_usbdbgpdd:usbdbgpdd.obj
 0001:00011e84       UsbDbgPdd_Init             10012e84 f   s3c6410_usbdbgpdd:usbdbgpdd.obj
 0001:00011f70       OTGDevice_StallHelper      10012f70 f   s3c6410_usbdbgpdd:otgdev.obj
 0001:00011fc0       OTGDevice_SoftResetCore    10012fc0 f   s3c6410_usbdbgpdd:otgdev.obj
 0001:00012000       OTGDevice_SetSoftDisconnect 10013000 f   s3c6410_usbdbgpdd:otgdev.obj
 0001:00012018       OTGDevice_ClearSoftDisconnect 10013018 f   s3c6410_usbdbgpdd:otgdev.obj
 0001:00012030       OTGDevice_SetAddress       10013030 f   s3c6410_usbdbgpdd:otgdev.obj
 0001:00012084       OTGDevice_InitNonControlEndPts 10013084 f   s3c6410_usbdbgpdd:otgdev.obj
 0001:000121d4       OTGDevice_SetOutEpXferSize 100131d4 f   s3c6410_usbdbgpdd:otgdev.obj
 0001:00012214       OTGDevice_DeInit           10013214 f   s3c6410_usbdbgpdd:otgdev.obj
 0001:000122b0       OTGDevice_HandleReset      100132b0 f   s3c6410_usbdbgpdd:otgdev.obj
 0001:00012348       OTGDevice_HandleEnumDone   10013348 f   s3c6410_usbdbgpdd:otgdev.obj
 0001:000123f8       OTGDevice_Init             100133f8 f   s3c6410_usbdbgpdd:otgdev.obj
 0001:0001251c       OTGDevice_InitEndPts       1001351c f   s3c6410_usbdbgpdd:otgdev.obj
 0001:000127b4       ProduceBuffer              100137b4 f   vbridge:vbridge.obj
 0001:000128cc       ProduceBufferDone          100138cc f   vbridge:vbridge.obj
 0001:0001290c       ConsumeBuffer              1001390c f   vbridge:vbridge.obj
 0001:000129d0       ConsumeBufferDone          100139d0 f   vbridge:vbridge.obj
 0001:00012a60       VBridgeInit                10013a60 f   vbridge:vbridge.obj
 0001:00012b74       VBridgeKGetOneTxBuffer     10013b74 f   vbridge:vbridge.obj
 0001:00012be8       VBridgeKGetOneTxBufferComplete 10013be8 f   vbridge:vbridge.obj
 0001:00012c34       VBridgeKIndicateOneRxBuffer 10013c34 f   vbridge:vbridge.obj
 0001:00012d24       VBridgeKSetLocalMacAddress 10013d24 f   vbridge:vbridge.obj
 0001:00012da4       VBridgeUGetOneTxPacket     10013da4 f   vbridge:vbridge.obj
 0001:00012e00       VBridgeUGetOneTxPacketComplete 10013e00 f   vbridge:vbridge.obj
 0001:00012e44       VBridgeUGetOneRxPacket     10013e44 f   vbridge:vbridge.obj
 0001:00012e98       VBridgeUGetOneRxPacketComplete 10013e98 f   vbridge:vbridge.obj
 0001:00012ed4       VBridgeUWildCard           10013ed4 f   vbridge:vbridge.obj
 0001:00012f68       VBridgeUGetEDBGMac         10013f68 f   vbridge:vbridge.obj
 0001:00012fb0       VBridgeUCurrentPacketFilter 10013fb0 f   vbridge:vbridge.obj
 0001:00012ff8       __GSHandlerCheckCommon     10013ff8 f   fulllibc:gshandler.obj
 0001:00013034       __GSHandlerCheck           10014034 f   fulllibc:gshandler.obj
 0001:00013058       memset                     10014058 f   fulllibc:memset.obj
 0001:000130e0       __security_check_cookie    100140e0 f   fulllibc:armsecgs.obj
 0001:000130f4       __gsfailure                100140f4 f   fulllibc:armsecgs.obj
 0001:00013138       strcpy                     10014138 f   fulllibc:strcpy.obj
 0001:000131bc       strlen                     100141bc f   fulllibc:mdsstrlen.obj
 0001:00013220       strcmp                     10014220 f   fulllibc:mdsstrcmp.obj
 0001:00013310       memcpy                     10014310 f   fulllibc:memcpy.obj
 0001:000136bc       memcpybigblk               100146bc f   fulllibc:memcpy.obj
 0001:00014070       __C_specific_handler       10015070 f   fulllibc:chandler.obj
 0001:000141bc       __GSHandlerCheck_SEH       100151bc f   fulllibc:gshandlerseh.obj
 0001:0001420c       __rt_sdiv                  1001520c f   fulllibc:__div.obj
 0001:000142e8       memcmp                     100152e8 f   fulllibc:memcmp.obj
 0001:000143b4       __C_ExecuteTerminationHandler 100153b4 f   fulllibc:jmpuwind.obj
 0001:000143b4       __C_ExecuteExceptionFilter 100153b4 f   fulllibc:jmpuwind.obj
 0001:000143f4       __raise_int_divide_by_zero 100153f4 f   fulllibc:diverr.obj
 0001:00014418       __crtRaiseException        10015418 f   fulllibc:raiseexc.obj
 0001:0001443c       OALLogSerial               1001543c f   kitl_log:log.obj
 0001:00014490       OALLogPrintf               10015490 f   kitl_log:log.obj
 0002:00000000       g_kitlEthDM9000A           10016000     kitl.obj
 0002:0000002c       g_kitlEthUsbRndis          1001602c     kitl.obj
 0002:00000058       g_kitlUsbSerial            10016058     kitl.obj
 0002:00000080       g_kitlDevices              10016080     kitl.obj
 0002:000000f8       g_dwKITLThreadPriority     100160f8     kitlcore:ethdbg.obj
 0002:000000fc       g_dwKITLTimerThreadPriority 100160fc     kitlcore:ethdbg.obj
 0002:00000100       __security_cookie          10016100     nkstub:nkstub.obj
 0002:00000104       __security_cookie_complement 10016104     nkstub:nkstub.obj
 0002:00000108       dpCurSettings              10016108     kitl_log:debug.obj
 0002:00000898       g_UsbDbgZones              10016898     s3c6410_usbdbgpdd:usbdbgpdd.obj
 0002:00028528       ?g_LastRxPktStatus@@3KA    1003e528     s3c6410_usbdbgpdd:usbdbgpdd.obj
 0002:0002852c       g_NumEPsUsed               1003e52c     s3c6410_usbdbgpdd:otgdev.obj
 0002:00028530       g_pusbDeviceDescriptor     1003e530     s3c6410_usbdbgpdd:otgdev.obj
 0002:00028534       dwCurrentPacketFilter      1003e534     vbridge:vbridge.obj
 0002:00028538       bValidAddress              1003e538     vbridge:vbridge.obj
 0002:0002853c       bWarnNoMacDone             1003e53c     vbridge:vbridge.obj
 0002:00028540       g_bResetBuffer             1003e540     vbridge:vbridge.obj
 0002:00028544       g_bUOpened                 1003e544     vbridge:vbridge.obj
 0002:00028548       g_KitlInterval             1003e548     <common>
 0002:00028560       preallocent                1003e560     <common>
 0002:000287f4       g_pprcNK                   1003e7f4     <common>
 0002:00028800       DfltClnts                  1003e800     <common>
 0002:000289a0       g_kpriv                    1003e9a0     <common>
 0002:00028a00       TimerListCS                1003ea00     <common>
 0002:00028a14       KITLGlobalState            1003ea14     <common>
 0002:00028a20       SendFmtBuf                 1003ea20     <common>
 0002:00029020       KITLcs                     1003f020     <common>
 0002:00029034       g_pKData                   1003f034     <common>
 0002:00029040       KITLODScs                  1003f040     <common>
 0002:00029060       KITLKCallcs                1003f060     <common>
 0002:00029080       Kitl                       1003f080     <common>
 0002:000290e0       KITLClients                1003f0e0     <common>
 0002:000292e0       g_pNKGlobal                1003f2e0     <common>
 0002:000292e4       g_pOemGlobal               1003f2e4     <common>
 0002:00029300       g_oalKitlBuffer            1003f300     <common>
 0002:00039300       DOEPDMA                    1004f300     <common>
 0002:00039340       DOEPINT                    1004f340     <common>
 0002:00039380       oOtgDev                    1004f380     <common>
 0002:000393a0       DIEPINT                    1004f3a0     <common>
 0002:000393e0       DIEPCTL                    1004f3e0     <common>
 0002:00039420       g_usbDeviceDescriptor      1004f420     <common>
 0002:00039440       DOEPTSIZ                   1004f440     <common>
 0002:00039480       DOEPCTL                    1004f480     <common>
 0002:000394c0       DIEPTSIZ                   1004f4c0     <common>
 0002:00039500       EP_FIFO                    1004f500     <common>
 0002:00039540       EndPointsInfo              1004f540     <common>
 0002:00039580       DIEPDMA                    1004f580     <common>
 0002:000395bc       pucRxMax                   1004f5bc     <common>
 0002:000395c0       pucTxConsumer              1004f5c0     <common>
 0002:000395c4       pucTxMin                   1004f5c4     <common>
 0002:000395e0       TxBuffers                  1004f5e0     <common>
 0002:0003d5e4       pucRxProducer              100535e4     <common>
 0002:0003d5e8       EDBGMacAddress             100535e8     <common>
 0002:0003d5f0       pucTxMax                   100535f0     <common>
 0002:0003d5f4       pucRxMin                   100535f4     <common>
 0002:0003d5f8       pucTxProducer              100535f8     <common>
 0002:0003d5fc       pucRxConsumer              100535fc     <common>
 0002:0003d600       RxBuffers                  10053600     <common>

 entry point at        0001:00007f0c

 Static symbols

 0001:00006700       NewClient                  10007700 f   kitlcore:ethdbg.obj
 0001:000067f0       RegisterClientPart2        100077f0 f   kitlcore:ethdbg.obj
 0001:00006b3c       ChkCnxDsktp                10007b3c f   kitlcore:ethdbg.obj
 0001:00006b50       TranCnxDsktp               10007b50 f   kitlcore:ethdbg.obj
 0001:00006b80       KITLConnectToDesktop       10007b80 f   kitlcore:ethdbg.obj
 0001:00006d44       MemCopyUserPtr             10007d44 f   kitlcore:ethdbg.obj
 0001:00006de0       KITLInterruptThread        10007de0 f   kitlcore:ethdbg.obj
 0001:00006f9c       DoRegisterClient           10007f9c f   kitlcore:ethdbg.obj
 0001:000074bc       StartKitl                  100084bc f   kitlcore:ethdbg.obj
 0001:00007fbc       pOutputByte                10008fbc f   kitlcore:debug.obj
 0001:00007fec       pOutputNumHex              10008fec f   kitlcore:debug.obj
 0001:00008034       pOutputNumDecimal          10009034 f   kitlcore:debug.obj
 0001:00008078       vOutputFormatString        10009078 f   kitlcore:debug.obj
 0001:00008484       TimerListInsert            10009484 f   kitlcore:timer.obj
 0001:00008a40       CheckCfg                   10009a40 f   kitlcore:edbgprot.obj
 0001:00008a54       ChkAck                     10009a54 f   kitlcore:edbgprot.obj
 0001:00008dd8       SendAckNack                10009dd8 f   kitlcore:edbgprot.obj
 0001:00008ed8       ProcessAdminMsg            10009ed8 f   kitlcore:edbgprot.obj
 0001:0000923c       RetransmitCfg              1000a23c f   kitlcore:edbgprot.obj
 0001:00009250       TranAck                    1000a250 f   kitlcore:edbgprot.obj
 0001:000092bc       ProcessRecvFrame           1000a2bc f   kitlcore:edbgprot.obj
 0001:00009834       KITLPollData               1000a834 f   kitlcore:edbgprot.obj
 0001:0000ada0       Sum                        1000bda0 f   oal_kitl:kitleth.obj
 0001:0000ae08       SendARP                    1000be08 f   oal_kitl:kitleth.obj
 0001:0000aed0       EncodeIP                   1000bed0 f   oal_kitl:kitleth.obj
 0001:0000b034       EncodeUDP                  1000c034 f   oal_kitl:kitleth.obj
 0001:0000b120       SendDHCP                   1000c120 f   oal_kitl:kitleth.obj
 0001:0000b310       RenewDHCP                  1000c310 f   oal_kitl:kitleth.obj
 0001:0000b368       DecodeDHCP                 1000c368 f   oal_kitl:kitleth.obj
 0001:0000b5ac       DecodeICMP                 1000c5ac f   oal_kitl:kitleth.obj
 0001:0000b6dc       DecodeUDP                  1000c6dc f   oal_kitl:kitleth.obj
 0001:0000b990       KitlEthDecode              1000c990 f   oal_kitl:kitleth.obj
 0001:0000bb00       KitlEthEncode              1000cb00 f   oal_kitl:kitleth.obj
 0001:0000bb90       KitlEthSetHostCfg          1000cb90 f   oal_kitl:kitleth.obj
 0001:0000bb98       KitlEthGetDevCfg           1000cb98 f   oal_kitl:kitleth.obj
 0001:0000bc88       KitlEthSend                1000cc88 f   oal_kitl:kitleth.obj
 0001:0000bdfc       KitlEthRecv                1000cdfc f   oal_kitl:kitleth.obj
 0001:0000bf44       KitlEthEnableInt           1000cf44 f   oal_kitl:kitleth.obj
 0001:0000c184       GetAddressDHCP             1000d184 f   oal_kitl:kitleth.obj
 0001:0000ca10       SerialSend                 1000da10 f   oal_kitl:kitlserial.obj
 0001:0000cae0       SerialRecv                 1000dae0 f   oal_kitl:kitlserial.obj
 0001:0000ce28       SerialEncode               1000de28 f   oal_kitl:kitlserial.obj
 0001:0000ced8       SerialDecode               1000ded8 f   oal_kitl:kitlserial.obj
 0001:0000cef0       SerialEnableInt            1000def0 f   oal_kitl:kitlserial.obj
 0001:0000cf30       SerialGetDevCfg            1000df30 f   oal_kitl:kitlserial.obj
 0001:0000cf40       SerialSetHostCfg           1000df40 f   oal_kitl:kitlserial.obj
 0001:0000df88       WaitForInit                1000ef88 f   oal_usbdbgsermdd:serifc.obj
 0001:0000e2d4       StartTransfer              1000f2d4 f   oal_usbdbgsermdd:usbser.obj
 0001:0000e3c4       ContinueRxTransfer         1000f3c4 f   oal_usbdbgsermdd:usbser.obj
 0001:0000e4f4       ContinueTxTransfer         1000f4f4 f   oal_usbdbgsermdd:usbser.obj
 0001:0000e620       AbortTransfer              1000f620 f   oal_usbdbgsermdd:usbser.obj
 0001:0000e66c       SendDescriptor             1000f66c f   oal_usbdbgsermdd:usbser.obj
 0001:0000e934       ProcessSetupPacket         1000f934 f   oal_usbdbgsermdd:usbser.obj
 0001:0000ec6c       UpdateUSBDesc              1000fc6c f   oal_usbdbgsermdd:usbser.obj
 0001:0000f1f0       SendRecvData               100101f0 f   oal_usbdbgsermdd:usbser.obj
 0001:0000f330       HostMiniQueryInformation   10010330 f   oal_usbdbgrndismdd:rndismin.obj
 0001:0000f574       HostMiniSetInformation     10010574 f   oal_usbdbgrndismdd:rndismin.obj
 0001:0000f6d0       PrepareRndisPacket         100106d0 f   oal_usbdbgrndismdd:rndismin.obj
 0001:0000f7c4       SendRndisMessage           100107c4 f   oal_usbdbgrndismdd:rndismin.obj
 0001:000101d0       StartTransfer              100111d0 f   oal_usbdbgrndismdd:usbrndis.obj
 0001:000102c0       ContinueRxTransfer         100112c0 f   oal_usbdbgrndismdd:usbrndis.obj
 0001:000103e4       ContinueTxTransfer         100113e4 f   oal_usbdbgrndismdd:usbrndis.obj
 0001:0001050c       AbortTransfer              1001150c f   oal_usbdbgrndismdd:usbrndis.obj
 0001:00010554       SendDescriptor             10011554 f   oal_usbdbgrndismdd:usbrndis.obj
 0001:00010838       ProcessRndisMsg            10011838 f   oal_usbdbgrndismdd:usbrndis.obj
 0001:000108c4       ProcessSetupPacket         100118c4 f   oal_usbdbgrndismdd:usbrndis.obj
 0001:00010c60       UpdateUSBDesc              10011c60 f   oal_usbdbgrndismdd:usbrndis.obj
 0001:00011240       SendRecvData               10012240 f   oal_usbdbgrndismdd:usbrndis.obj
 0001:00011420       ?DevStatChangeEvent@@YAXKPAW4USBDBG_MSG@@PAE@Z 10012420 f   s3c6410_usbdbgpdd:usbdbgpdd.obj
 0001:0001154c       ?WaitForSetupXferDone@@YAXXZ 1001254c f   s3c6410_usbdbgpdd:usbdbgpdd.obj
